ARM GAS  C:\Users\monis\AppData\Local\Temp\ccjQ9yrn.s 			page 1


   1              		.syntax unified
   2              		.cpu cortex-m3
   3              		.fpu softvfp
   4              		.eabi_attribute 20, 1
   5              		.eabi_attribute 21, 1
   6              		.eabi_attribute 23, 3
   7              		.eabi_attribute 24, 1
   8              		.eabi_attribute 25, 1
   9              		.eabi_attribute 26, 1
  10              		.eabi_attribute 30, 1
  11              		.eabi_attribute 34, 1
  12              		.eabi_attribute 18, 4
  13              		.thumb
  14              		.syntax unified
  15              		.file	"main.c"
  16              		.text
  17              	.Ltext0:
  18              		.cfi_sections	.debug_frame
  19              		.section	.text.LCD,"ax",%progbits
  20              		.align	2
  21              		.global	LCD
  22              		.thumb
  23              		.thumb_func
  24              		.type	LCD, %function
  25              	LCD:
  26              	.LFB63:
  27              		.file 1 "main.c"
   1:main.c        **** /* ========================================
   2:main.c        ****  *
   3:main.c        ****  * Copyright YOUR COMPANY, THE YEAR
   4:main.c        ****  * All Rights Reserved
   5:main.c        ****  * UNPUBLISHED, LICENSED SOFTWARE.
   6:main.c        ****  *
   7:main.c        ****  * CONFIDENTIAL AND PROPRIETARY INFORMATION
   8:main.c        ****  * WHICH IS THE PROPERTY OF your company.
   9:main.c        ****  *
  10:main.c        ****  * ========================================
  11:main.c        **** */
  12:main.c        **** #include "project.h"
  13:main.c        **** 
  14:main.c        **** void LCD() // LCD Display
  15:main.c        **** {              
  28              		.loc 1 15 0
  29              		.cfi_startproc
  30              		@ args = 0, pretend = 0, frame = 0
  31              		@ frame_needed = 0, uses_anonymous_args = 0
  32 0000 08B5     		push	{r3, lr}
  33              		.cfi_def_cfa_offset 8
  34              		.cfi_offset 3, -8
  35              		.cfi_offset 14, -4
  16:main.c        ****         LCD_Char_1_Start();
  36              		.loc 1 16 0
  37 0002 FFF7FEFF 		bl	LCD_Char_1_Start
  38              	.LVL0:
  17:main.c        ****         LCD_Char_1_Position(0,0);
  39              		.loc 1 17 0
  40 0006 0021     		movs	r1, #0
ARM GAS  C:\Users\monis\AppData\Local\Temp\ccjQ9yrn.s 			page 2


  41 0008 0846     		mov	r0, r1
  42 000a FFF7FEFF 		bl	LCD_Char_1_Position
  43              	.LVL1:
  18:main.c        ****         LCD_Char_1_PrintString("Potentiometer");
  44              		.loc 1 18 0
  45 000e 0248     		ldr	r0, .L3
  46 0010 FFF7FEFF 		bl	LCD_Char_1_PrintString
  47              	.LVL2:
  48 0014 08BD     		pop	{r3, pc}
  49              	.L4:
  50 0016 00BF     		.align	2
  51              	.L3:
  52 0018 00000000 		.word	.LC0
  53              		.cfi_endproc
  54              	.LFE63:
  55              		.size	LCD, .-LCD
  56              		.global	__aeabi_i2d
  57              		.global	__aeabi_ddiv
  58              		.global	__aeabi_dmul
  59              		.global	__aeabi_d2uiz
  60              		.section	.text.LCDdegree,"ax",%progbits
  61              		.align	2
  62              		.global	LCDdegree
  63              		.thumb
  64              		.thumb_func
  65              		.type	LCDdegree, %function
  66              	LCDdegree:
  67              	.LFB64:
  19:main.c        ****         return;
  20:main.c        **** }
  21:main.c        **** 
  22:main.c        **** void LCDdegree(int value) // LCD Display Degree
  23:main.c        **** {       
  68              		.loc 1 23 0
  69              		.cfi_startproc
  70              		@ args = 0, pretend = 0, frame = 0
  71              		@ frame_needed = 0, uses_anonymous_args = 0
  72              	.LVL3:
  73 0000 10B5     		push	{r4, lr}
  74              		.cfi_def_cfa_offset 8
  75              		.cfi_offset 4, -8
  76              		.cfi_offset 14, -4
  24:main.c        ****         uint16 degree;
  25:main.c        ****         degree = (value/255.0)*270;
  77              		.loc 1 25 0
  78 0002 FFF7FEFF 		bl	__aeabi_i2d
  79              	.LVL4:
  80 0006 10A3     		adr	r3, .L7
  81 0008 D3E90023 		ldrd	r2, [r3]
  82 000c FFF7FEFF 		bl	__aeabi_ddiv
  83              	.LVL5:
  84 0010 0FA3     		adr	r3, .L7+8
  85 0012 D3E90023 		ldrd	r2, [r3]
  86 0016 FFF7FEFF 		bl	__aeabi_dmul
  87              	.LVL6:
  88 001a FFF7FEFF 		bl	__aeabi_d2uiz
  89              	.LVL7:
ARM GAS  C:\Users\monis\AppData\Local\Temp\ccjQ9yrn.s 			page 3


  90 001e 84B2     		uxth	r4, r0
  91              	.LVL8:
  26:main.c        ****         LCD_Char_1_Position(1,0);
  92              		.loc 1 26 0
  93 0020 0021     		movs	r1, #0
  94 0022 0120     		movs	r0, #1
  95 0024 FFF7FEFF 		bl	LCD_Char_1_Position
  96              	.LVL9:
  27:main.c        ****         LCD_Char_1_PrintString("               ");
  97              		.loc 1 27 0
  98 0028 0B48     		ldr	r0, .L7+16
  99 002a FFF7FEFF 		bl	LCD_Char_1_PrintString
 100              	.LVL10:
  28:main.c        ****         LCD_Char_1_Position(1,0);
 101              		.loc 1 28 0
 102 002e 0021     		movs	r1, #0
 103 0030 0120     		movs	r0, #1
 104 0032 FFF7FEFF 		bl	LCD_Char_1_Position
 105              	.LVL11:
  29:main.c        ****         LCD_Char_1_PrintString("Degree=");
 106              		.loc 1 29 0
 107 0036 0948     		ldr	r0, .L7+20
 108 0038 FFF7FEFF 		bl	LCD_Char_1_PrintString
 109              	.LVL12:
  30:main.c        ****         LCD_Char_1_PrintU32Number(degree);
 110              		.loc 1 30 0
 111 003c 2046     		mov	r0, r4
 112 003e FFF7FEFF 		bl	LCD_Char_1_PrintU32Number
 113              	.LVL13:
 114 0042 10BD     		pop	{r4, pc}
 115              	.LVL14:
 116              	.L8:
 117 0044 AFF30080 		.align	3
 118              	.L7:
 119 0048 00000000 		.word	0
 120 004c 00E06F40 		.word	1081073664
 121 0050 00000000 		.word	0
 122 0054 00E07040 		.word	1081139200
 123 0058 10000000 		.word	.LC1
 124 005c 20000000 		.word	.LC2
 125              		.cfi_endproc
 126              	.LFE64:
 127              		.size	LCDdegree, .-LCDdegree
 128              		.section	.text.main,"ax",%progbits
 129              		.align	2
 130              		.global	main
 131              		.thumb
 132              		.thumb_func
 133              		.type	main, %function
 134              	main:
 135              	.LFB65:
  31:main.c        ****         
  32:main.c        ****         return;
  33:main.c        **** }
  34:main.c        **** 
  35:main.c        **** int main(void)
  36:main.c        **** {
ARM GAS  C:\Users\monis\AppData\Local\Temp\ccjQ9yrn.s 			page 4


 136              		.loc 1 36 0
 137              		.cfi_startproc
 138              		@ args = 0, pretend = 0, frame = 0
 139              		@ frame_needed = 0, uses_anonymous_args = 0
 140 0000 38B5     		push	{r3, r4, r5, lr}
 141              		.cfi_def_cfa_offset 16
 142              		.cfi_offset 3, -16
 143              		.cfi_offset 4, -12
 144              		.cfi_offset 5, -8
 145              		.cfi_offset 14, -4
  37:main.c        ****     CyGlobalIntEnable; /* Enable global interrupts. */
 146              		.loc 1 37 0
 147              		.syntax unified
 148              	@ 37 "main.c" 1
 149 0002 62B6     		CPSIE   i
 150              	@ 0 "" 2
  38:main.c        ****     uint16 i;
  39:main.c        ****     uint8 filtered,unfiltered,adcop,value;
  40:main.c        ****     /* Place your initialization/startup code here (e.g. MyInst_Start()) */
  41:main.c        ****     LCD_Char_1_ClearDisplay();
 151              		.loc 1 41 0
 152              		.thumb
 153              		.syntax unified
 154 0004 0120     		movs	r0, #1
 155 0006 FFF7FEFF 		bl	LCD_Char_1_WriteControl
 156              	.LVL15:
  42:main.c        ****     LCD();
 157              		.loc 1 42 0
 158 000a FFF7FEFF 		bl	LCD
 159              	.LVL16:
  43:main.c        ****     ADC_SAR_1_Start();
 160              		.loc 1 43 0
 161 000e FFF7FEFF 		bl	ADC_SAR_1_Start
 162              	.LVL17:
  44:main.c        ****     ADC_SAR_1_StartConvert();
 163              		.loc 1 44 0
 164 0012 FFF7FEFF 		bl	ADC_SAR_1_StartConvert
 165              	.LVL18:
  45:main.c        ****     VDAC8_1_Start();
 166              		.loc 1 45 0
 167 0016 FFF7FEFF 		bl	VDAC8_1_Start
 168              	.LVL19:
  46:main.c        ****     VDAC8_1_SetRange(255);
 169              		.loc 1 46 0
 170 001a FF20     		movs	r0, #255
 171 001c FFF7FEFF 		bl	VDAC8_1_SetRange
 172              	.LVL20:
 173              	.L11:
  47:main.c        ****     for(;;)
  48:main.c        ****     {   
  49:main.c        ****         value = ADC_SAR_1_GetResult8();
 174              		.loc 1 49 0
 175 0020 FFF7FEFF 		bl	ADC_SAR_1_GetResult8
 176              	.LVL21:
 177 0024 C5B2     		uxtb	r5, r0
 178              	.LVL22:
  50:main.c        ****         if(i%8091==0)
ARM GAS  C:\Users\monis\AppData\Local\Temp\ccjQ9yrn.s 			page 5


 179              		.loc 1 50 0
 180 0026 094B     		ldr	r3, .L13
 181 0028 A3FB0423 		umull	r2, r3, r3, r4
 182 002c 1B0B     		lsrs	r3, r3, #12
 183 002e 41F69B72 		movw	r2, #8091
 184 0032 02FB1343 		mls	r3, r2, r3, r4
 185 0036 9BB2     		uxth	r3, r3
 186 0038 13B9     		cbnz	r3, .L10
  51:main.c        ****         LCDdegree(value);
 187              		.loc 1 51 0
 188 003a 2846     		mov	r0, r5
 189 003c FFF7FEFF 		bl	LCDdegree
 190              	.LVL23:
 191              	.L10:
  52:main.c        ****         VDAC8_1_SetValue(value);
 192              		.loc 1 52 0
 193 0040 2846     		mov	r0, r5
 194 0042 FFF7FEFF 		bl	VDAC8_1_SetValue
 195              	.LVL24:
  53:main.c        ****         i++;
 196              		.loc 1 53 0
 197 0046 0134     		adds	r4, r4, #1
 198              	.LVL25:
 199 0048 A4B2     		uxth	r4, r4
 200              	.LVL26:
  54:main.c        ****     }
 201              		.loc 1 54 0
 202 004a E9E7     		b	.L11
 203              	.L14:
 204              		.align	2
 205              	.L13:
 206 004c 0B0B9981 		.word	-2120676597
 207              		.cfi_endproc
 208              	.LFE65:
 209              		.size	main, .-main
 210              		.section	.rodata.str1.4,"aMS",%progbits,1
 211              		.align	2
 212              	.LC0:
 213 0000 506F7465 		.ascii	"Potentiometer\000"
 213      6E74696F 
 213      6D657465 
 213      7200
 214 000e 0000     		.space	2
 215              	.LC1:
 216 0010 20202020 		.ascii	"               \000"
 216      20202020 
 216      20202020 
 216      20202000 
 217              	.LC2:
 218 0020 44656772 		.ascii	"Degree=\000"
 218      65653D00 
 219              		.text
 220              	.Letext0:
 221              		.file 2 "c:\\program files (x86)\\cypress\\psoc creator\\4.1\\psoc creator\\import\\gnu\\arm\\5.4.
 222              		.file 3 "c:\\program files (x86)\\cypress\\psoc creator\\4.1\\psoc creator\\import\\gnu\\arm\\5.4.
 223              		.file 4 "Generated_Source\\PSoC5/cytypes.h"
 224              		.file 5 "Generated_Source\\PSoC5/LCD_Char_1.h"
ARM GAS  C:\Users\monis\AppData\Local\Temp\ccjQ9yrn.s 			page 6


 225              		.file 6 "Generated_Source\\PSoC5/ADC_SAR_1.h"
 226              		.file 7 "Generated_Source\\PSoC5/VDAC8_1.h"
 227              		.file 8 "Generated_Source\\PSoC5/core_cm3.h"