ARM GAS  C:\Users\monis\AppData\Local\Temp\ccxFy7O5.s 			page 1


   1              		.syntax unified
   2              		.cpu cortex-m3
   3              		.fpu softvfp
   4              		.eabi_attribute 20, 1
   5              		.eabi_attribute 21, 1
   6              		.eabi_attribute 23, 3
   7              		.eabi_attribute 24, 1
   8              		.eabi_attribute 25, 1
   9              		.eabi_attribute 26, 1
  10              		.eabi_attribute 30, 1
  11              		.eabi_attribute 34, 1
  12              		.eabi_attribute 18, 4
  13              		.thumb
  14              		.syntax unified
  15              		.file	"main.c"
  16              		.text
  17              	.Ltext0:
  18              		.cfi_sections	.debug_frame
  19              		.global	__aeabi_i2d
  20              		.global	__aeabi_dmul
  21              		.global	__aeabi_ddiv
  22              		.global	__aeabi_d2uiz
  23              		.section	.text.CMP,"ax",%progbits
  24              		.align	2
  25              		.global	CMP
  26              		.thumb
  27              		.thumb_func
  28              		.type	CMP, %function
  29              	CMP:
  30              	.LFB63:
  31              		.file 1 "main.c"
   1:main.c        **** /* ========================================
   2:main.c        ****  *
   3:main.c        ****  * Copyright YOUR COMPANY, THE YEAR
   4:main.c        ****  * All Rights Reserved
   5:main.c        ****  * UNPUBLISHED, LICENSED SOFTWARE.
   6:main.c        ****  *
   7:main.c        ****  * CONFIDENTIAL AND PROPRIETARY INFORMATION
   8:main.c        ****  * WHICH IS THE PROPERTY OF your company.
   9:main.c        ****  *
  10:main.c        ****  * ========================================
  11:main.c        **** */
  12:main.c        **** #include "project.h"
  13:main.c        **** 
  14:main.c        **** #define Kp 0.05
  15:main.c        **** 
  16:main.c        **** #define C1 0.00202727317810059
  17:main.c        **** #define C2 0.00185632705688477
  18:main.c        **** #define C3 0
  19:main.c        **** #define C4 -0.00507450103759766
  20:main.c        **** #define C5 -0.0129343271255493
  21:main.c        **** #define C6 -0.0195416212081909
  22:main.c        **** #define C7 -0.0176916122436523
  23:main.c        **** #define C8 0
  24:main.c        **** #define C9 0.0367516279220581
  25:main.c        **** #define C10 0.0882844924926758
  26:main.c        **** #define C11 0.142722129821777
ARM GAS  C:\Users\monis\AppData\Local\Temp\ccxFy7O5.s 			page 2


  27:main.c        **** #define C12 0.184384346008301
  28:main.c        **** #define C13 0.200000047683716
  29:main.c        **** #define C14 0.184384346008301
  30:main.c        **** #define C15 0.142722129821777
  31:main.c        **** #define C16 0.0882844924926758
  32:main.c        **** #define C17 0.0367516279220581
  33:main.c        **** #define C18 0
  34:main.c        **** #define C19 -0.0176916122436523
  35:main.c        **** #define C20 -0.0195416212081909
  36:main.c        **** #define C21 -0.0129343271255493
  37:main.c        **** #define C22 -0.00507450103759766
  38:main.c        **** #define C23 0
  39:main.c        **** #define C24 0.00185632705688477
  40:main.c        **** #define C25 0.00202727317810059
  41:main.c        **** 
  42:main.c        **** #define sample_period 0.01  // defines sample period in seconds for speed measurement
  43:main.c        **** 
  44:main.c        **** #define size1 20
  45:main.c        **** #define size2 20
  46:main.c        **** 
  47:main.c        **** #define CMP_ref 150
  48:main.c        **** 
  49:main.c        **** uint16_t prev_count =0;
  50:main.c        **** uint16_t curr_count=0;
  51:main.c        **** int16_t diff =0;
  52:main.c        **** float degrees =0;
  53:main.c        **** 
  54:main.c        **** float RPM_f=0;  
  55:main.c        **** 
  56:main.c        **** uint16_t RPM_i=0;
  57:main.c        **** 
  58:main.c        **** uint16_t change_cnt =0;
  59:main.c        **** uint16_t speed_cnt =0;
  60:main.c        **** 
  61:main.c        **** uint16_t current_RPM=0;
  62:main.c        **** 
  63:main.c        **** uint16_t RPM_ref =205;
  64:main.c        **** 
  65:main.c        **** uint16_t prev_RPM=201;
  66:main.c        **** 
  67:main.c        **** int16_t error=0;
  68:main.c        **** 
  69:main.c        **** uint8_t flag =0;
  70:main.c        **** 
  71:main.c        **** uint8_t Avg_array[25] ={0};
  72:main.c        **** volatile uint8_t current_Avg =0;
  73:main.c        **** uint8_t current_sample =0;
  74:main.c        **** 
  75:main.c        **** uint8_t sample_array1[size1] ={0};
  76:main.c        **** uint8_t sample_array2[size2]={0};
  77:main.c        **** 
  78:main.c        **** uint32_t low_sum =0;
  79:main.c        **** uint16_t high_sum=0;
  80:main.c        **** 
  81:main.c        **** uint8_t low_avg =0;
  82:main.c        **** uint8_t high_avg =0;
  83:main.c        **** 
ARM GAS  C:\Users\monis\AppData\Local\Temp\ccxFy7O5.s 			page 3


  84:main.c        **** 
  85:main.c        **** uint8_t peak_cnt=0;
  86:main.c        **** 
  87:main.c        **** uint8_t UP_FLAG=0;
  88:main.c        **** uint8_t DWN_FLAG=0;
  89:main.c        **** 
  90:main.c        **** int pos = 0;
  91:main.c        **** int newAvg = 0;
  92:main.c        **** long sum = 0;
  93:main.c        **** uint8 moving_avg;
  94:main.c        **** 
  95:main.c        **** int k=0;
  96:main.c        **** int l=0;
  97:main.c        **** 
  98:main.c        **** uint8_t max_value =0;
  99:main.c        ****     
 100:main.c        **** uint16_t Output_Volt =255;
 101:main.c        ****     
 102:main.c        **** int8_t Output_Delta =0;
 103:main.c        **** 
 104:main.c        **** CY_ISR(CMP)
 105:main.c        **** {
  32              		.loc 1 105 0
  33              		.cfi_startproc
  34              		@ args = 0, pretend = 0, frame = 0
  35              		@ frame_needed = 0, uses_anonymous_args = 0
  36 0000 08B5     		push	{r3, lr}
  37              		.cfi_def_cfa_offset 8
  38              		.cfi_offset 3, -8
  39              		.cfi_offset 14, -4
 106:main.c        ****     peak_cnt++;
  40              		.loc 1 106 0
  41 0002 294A     		ldr	r2, .L9+8
  42 0004 1378     		ldrb	r3, [r2]	@ zero_extendqisi2
  43 0006 0133     		adds	r3, r3, #1
  44 0008 DBB2     		uxtb	r3, r3
  45 000a 1370     		strb	r3, [r2]
 107:main.c        ****    
 108:main.c        ****     if(peak_cnt ==24)
  46              		.loc 1 108 0
  47 000c 182B     		cmp	r3, #24
  48 000e 45D1     		bne	.L1
 109:main.c        ****     {
 110:main.c        ****         peak_cnt=0;
  49              		.loc 1 110 0
  50 0010 1346     		mov	r3, r2
  51 0012 0022     		movs	r2, #0
  52 0014 1A70     		strb	r2, [r3]
 111:main.c        ****          if (speed_cnt<5)
  53              		.loc 1 111 0
  54 0016 5888     		ldrh	r0, [r3, #2]
  55 0018 0428     		cmp	r0, #4
  56 001a 3FD9     		bls	.L1
 112:main.c        ****              {}
 113:main.c        ****         else
 114:main.c        ****         {
 115:main.c        ****         current_RPM = 6000000.0/(speed_cnt*18.75);//convert us/ rotation to rotations/min
ARM GAS  C:\Users\monis\AppData\Local\Temp\ccxFy7O5.s 			page 4


  57              		.loc 1 115 0
  58 001c FFF7FEFF 		bl	__aeabi_i2d
  59              	.LVL0:
  60 0020 0022     		movs	r2, #0
  61 0022 224B     		ldr	r3, .L9+12
  62 0024 FFF7FEFF 		bl	__aeabi_dmul
  63              	.LVL1:
  64 0028 0246     		mov	r2, r0
  65 002a 0B46     		mov	r3, r1
  66 002c 1CA1     		adr	r1, .L9
  67 002e D1E90001 		ldrd	r0, [r1]
  68 0032 FFF7FEFF 		bl	__aeabi_ddiv
  69              	.LVL2:
  70 0036 FFF7FEFF 		bl	__aeabi_d2uiz
  71              	.LVL3:
  72 003a 80B2     		uxth	r0, r0
  73 003c 1A4B     		ldr	r3, .L9+8
  74 003e 9880     		strh	r0, [r3, #4]	@ movhi
 116:main.c        ****         speed_cnt=0;
  75              		.loc 1 116 0
  76 0040 0022     		movs	r2, #0
  77 0042 5A80     		strh	r2, [r3, #2]	@ movhi
 117:main.c        ****         
 118:main.c        ****         if(current_RPM-prev_RPM>50 || current_RPM-prev_RPM < -5)
  78              		.loc 1 118 0
  79 0044 1A4B     		ldr	r3, .L9+16
  80 0046 1B88     		ldrh	r3, [r3]
  81 0048 C01A     		subs	r0, r0, r3
  82 004a 0530     		adds	r0, r0, #5
  83 004c 3728     		cmp	r0, #55
  84 004e 01D9     		bls	.L3
 119:main.c        ****         {
 120:main.c        ****             current_RPM=prev_RPM;
  85              		.loc 1 120 0
  86 0050 154A     		ldr	r2, .L9+8
  87 0052 9380     		strh	r3, [r2, #4]	@ movhi
  88              	.L3:
 121:main.c        ****         }
 122:main.c        ****         
 123:main.c        ****         
 124:main.c        ****             error =  RPM_ref - current_RPM;
  89              		.loc 1 124 0
  90 0054 1449     		ldr	r1, .L9+8
  91 0056 8A88     		ldrh	r2, [r1, #4]
  92 0058 154B     		ldr	r3, .L9+16
  93 005a 5B88     		ldrh	r3, [r3, #2]
  94 005c 9B1A     		subs	r3, r3, r2
  95 005e 1BB2     		sxth	r3, r3
  96 0060 CB80     		strh	r3, [r1, #6]	@ movhi
 125:main.c        ****             
 126:main.c        ****             //Output_Delta = (int8_t) (Kp*error);
 127:main.c        ****         
 128:main.c        ****             //Output_Volt += Output_Delta; // change PWM compare value base on PI controller output
 129:main.c        ****         
 130:main.c        ****             if (error>5)
  97              		.loc 1 130 0
  98 0062 052B     		cmp	r3, #5
ARM GAS  C:\Users\monis\AppData\Local\Temp\ccxFy7O5.s 			page 5


  99 0064 03DD     		ble	.L4
 131:main.c        ****             {
 132:main.c        ****                 Output_Volt+=2;
 100              		.loc 1 132 0
 101 0066 1248     		ldr	r0, .L9+16
 102 0068 8188     		ldrh	r1, [r0, #4]
 103 006a 0231     		adds	r1, r1, #2
 104 006c 8180     		strh	r1, [r0, #4]	@ movhi
 105              	.L4:
 133:main.c        ****             }
 134:main.c        ****             
 135:main.c        ****             if(error<-5)
 106              		.loc 1 135 0
 107 006e 13F1050F 		cmn	r3, #5
 108 0072 03DA     		bge	.L5
 136:main.c        ****             
 137:main.c        ****             {
 138:main.c        ****                 Output_Volt-=2;
 109              		.loc 1 138 0
 110 0074 0E49     		ldr	r1, .L9+16
 111 0076 8B88     		ldrh	r3, [r1, #4]
 112 0078 023B     		subs	r3, r3, #2
 113 007a 8B80     		strh	r3, [r1, #4]	@ movhi
 114              	.L5:
 139:main.c        ****             }
 140:main.c        ****             
 141:main.c        ****             if(Output_Volt > 255)
 115              		.loc 1 141 0
 116 007c 0C4B     		ldr	r3, .L9+16
 117 007e 9B88     		ldrh	r3, [r3, #4]
 118 0080 FF2B     		cmp	r3, #255
 119 0082 02D9     		bls	.L6
 142:main.c        ****             Output_Volt=255;
 120              		.loc 1 142 0
 121 0084 FF21     		movs	r1, #255
 122 0086 0A4B     		ldr	r3, .L9+16
 123 0088 9980     		strh	r1, [r3, #4]	@ movhi
 124              	.L6:
 143:main.c        ****             
 144:main.c        ****             if(Output_Volt <235)
 125              		.loc 1 144 0
 126 008a 094B     		ldr	r3, .L9+16
 127 008c 9B88     		ldrh	r3, [r3, #4]
 128 008e EA2B     		cmp	r3, #234
 129 0090 02D8     		bhi	.L7
 145:main.c        ****             Output_Volt=235;
 130              		.loc 1 145 0
 131 0092 EB21     		movs	r1, #235
 132 0094 064B     		ldr	r3, .L9+16
 133 0096 9980     		strh	r1, [r3, #4]	@ movhi
 134              	.L7:
 146:main.c        ****         
 147:main.c        ****         
 148:main.c        ****             prev_RPM=current_RPM;
 135              		.loc 1 148 0
 136 0098 054B     		ldr	r3, .L9+16
 137 009a 1A80     		strh	r2, [r3]	@ movhi
ARM GAS  C:\Users\monis\AppData\Local\Temp\ccxFy7O5.s 			page 6


 138              	.L1:
 139 009c 08BD     		pop	{r3, pc}
 140              	.L10:
 141 009e 00BF     		.align	3
 142              	.L9:
 143 00a0 00000000 		.word	0
 144 00a4 60E35641 		.word	1096213344
 145 00a8 00000000 		.word	.LANCHOR0
 146 00ac 00C03240 		.word	1077067776
 147 00b0 00000000 		.word	.LANCHOR1
 148              		.cfi_endproc
 149              	.LFE63:
 150              		.size	CMP, .-CMP
 151              		.section	.text.Count,"ax",%progbits
 152              		.align	2
 153              		.global	Count
 154              		.thumb
 155              		.thumb_func
 156              		.type	Count, %function
 157              	Count:
 158              	.LFB65:
 149:main.c        ****         
 150:main.c        ****         
 151:main.c        ****         }
 152:main.c        ****         
 153:main.c        ****     }
 154:main.c        ****     
 155:main.c        ****      
 156:main.c        ****            
 157:main.c        ****          
 158:main.c        ****     
 159:main.c        **** }
 160:main.c        **** 
 161:main.c        **** 
 162:main.c        **** CY_ISR(Motor_Current)
 163:main.c        **** {
 164:main.c        ****     /*
 165:main.c        ****     
 166:main.c        ****     ADC_SAR_2_IsEndConversion(ADC_SAR_2_RETURN_STATUS);
 167:main.c        ****     
 168:main.c        ****     //Subtract the oldest number from the prev sum, add the new number
 169:main.c        ****     sum = sum - sample_array2[pos] + ADC_SAR_2_GetResult8();
 170:main.c        ****   //Assign the nextNum to the position in the array
 171:main.c        ****   sample_array2[pos] = ADC_SAR_2_GetResult8();
 172:main.c        ****   //return the average
 173:main.c        ****     moving_avg = sum/size2;
 174:main.c        ****     pos++;
 175:main.c        ****     if (pos == size2){
 176:main.c        ****       pos = 0;
 177:main.c        ****     }
 178:main.c        ****     VDAC8_2_SetValue((moving_avg*1.2)+12);
 179:main.c        ****         
 180:main.c        ****     
 181:main.c        ****         for (k=0; k<size1-1; k++)
 182:main.c        ****         {
 183:main.c        ****             sample_array1[k]=sample_array1[k+1];
 184:main.c        ****             
ARM GAS  C:\Users\monis\AppData\Local\Temp\ccxFy7O5.s 			page 7


 185:main.c        ****         }
 186:main.c        ****     
 187:main.c        ****          
 188:main.c        ****          for (k=0; k<size2-1; k++)
 189:main.c        ****         {
 190:main.c        ****             sample_array2[k]=sample_array2[k+1];
 191:main.c        ****             
 192:main.c        ****         }
 193:main.c        ****         
 194:main.c        ****         sample_array2[size2-1]=ADC_SAR_2_GetResult8();
 195:main.c        ****         
 196:main.c        ****         
 197:main.c        ****        
 198:main.c        ****         
 199:main.c        ****         //sample_array1[size1-1]=ADC_SAR_2_GetResult8();
 200:main.c        ****         
 201:main.c        ****         for (l=0; l<size2; l++)
 202:main.c        ****         {
 203:main.c        ****             low_sum +=sample_array2[k];
 204:main.c        ****         }
 205:main.c        ****         
 206:main.c        ****         low_avg =low_sum/size2;
 207:main.c        ****         low_sum=0;
 208:main.c        ****     
 209:main.c        ****     */
 210:main.c        ****         
 211:main.c        ****         
 212:main.c        ****         
 213:main.c        ****        
 214:main.c        ****         /*
 215:main.c        ****          for (k=0; k<size1; k++)
 216:main.c        ****         {
 217:main.c        ****             high_sum +=sample_array1[k];
 218:main.c        ****         }
 219:main.c        ****         
 220:main.c        ****         high_avg =high_sum/size1;
 221:main.c        ****         
 222:main.c        ****         */
 223:main.c        ****         
 224:main.c        ****         
 225:main.c        ****         
 226:main.c        ****         
 227:main.c        ****         /*
 228:main.c        ****         if (low_avg >high_avg)
 229:main.c        ****         {
 230:main.c        ****             
 231:main.c        ****             if(DWN_FLAG==1)
 232:main.c        ****             {
 233:main.c        ****                 Digital_Output_1_Write(0);
 234:main.c        ****             }
 235:main.c        ****             
 236:main.c        ****             
 237:main.c        ****             UP_FLAG=1;
 238:main.c        ****             DWN_FLAG=0;
 239:main.c        ****             
 240:main.c        ****             
 241:main.c        ****             
ARM GAS  C:\Users\monis\AppData\Local\Temp\ccxFy7O5.s 			page 8


 242:main.c        ****           
 243:main.c        ****         }
 244:main.c        ****         
 245:main.c        ****         else if (low_avg <high_avg)
 246:main.c        ****         {
 247:main.c        ****             if(UP_FLAG==1)
 248:main.c        ****             {
 249:main.c        ****                // peak_cnt++;
 250:main.c        ****                 Digital_Output_1_Write(1);
 251:main.c        ****                 Digital_Output_1_Write(0);
 252:main.c        ****             }
 253:main.c        ****             
 254:main.c        ****         
 255:main.c        ****             DWN_FLAG=1;
 256:main.c        ****             UP_FLAG=0;
 257:main.c        ****             
 258:main.c        ****         }
 259:main.c        ****         */
 260:main.c        ****     
 261:main.c        **** }
 262:main.c        **** 
 263:main.c        **** 
 264:main.c        **** CY_ISR(Count)
 265:main.c        **** {
 159              		.loc 1 265 0
 160              		.cfi_startproc
 161              		@ args = 0, pretend = 0, frame = 0
 162              		@ frame_needed = 0, uses_anonymous_args = 0
 163              		@ link register save eliminated.
 266:main.c        ****     
 267:main.c        ****     
 268:main.c        ****     speed_cnt++;  //every 1ms
 164              		.loc 1 268 0
 165 0000 024A     		ldr	r2, .L12
 166 0002 5388     		ldrh	r3, [r2, #2]
 167 0004 0133     		adds	r3, r3, #1
 168 0006 5380     		strh	r3, [r2, #2]	@ movhi
 169 0008 7047     		bx	lr
 170              	.L13:
 171 000a 00BF     		.align	2
 172              	.L12:
 173 000c 00000000 		.word	.LANCHOR0
 174              		.cfi_endproc
 175              	.LFE65:
 176              		.size	Count, .-Count
 177              		.global	__aeabi_d2f
 178              		.global	__aeabi_f2d
 179              		.global	__aeabi_fdiv
 180              		.global	__aeabi_f2uiz
 181              		.section	.text.Encoder,"ax",%progbits
 182              		.align	2
 183              		.global	Encoder
 184              		.thumb
 185              		.thumb_func
 186              		.type	Encoder, %function
 187              	Encoder:
 188              	.LFB66:
ARM GAS  C:\Users\monis\AppData\Local\Temp\ccxFy7O5.s 			page 9


 269:main.c        ****     
 270:main.c        ****      /*
 271:main.c        ****         ADC_SAR_2_IsEndConversion(ADC_SAR_2_RETURN_STATUS);
 272:main.c        ****         //moving avg filter
 273:main.c        ****         Avg_array[24]=ADC_SAR_2_GetResult8( );
 274:main.c        ****         current_Avg = Avg_array[0]*C1 +Avg_array[1]*C2+Avg_array[2]*C3+Avg_array[3]*C4+Avg_array[4]
 275:main.c        ****         Avg_array[0]=Avg_array[1];
 276:main.c        ****         Avg_array[1]=Avg_array[2];
 277:main.c        ****         Avg_array[2]=Avg_array[3];
 278:main.c        ****         Avg_array[3]=Avg_array[4];
 279:main.c        ****         Avg_array[4]=Avg_array[5];
 280:main.c        ****         Avg_array[5]=Avg_array[6];
 281:main.c        ****         Avg_array[6]=Avg_array[7];
 282:main.c        ****         Avg_array[7]=Avg_array[8];
 283:main.c        ****         Avg_array[8]=Avg_array[9];
 284:main.c        ****         Avg_array[9]=Avg_array[10];
 285:main.c        ****         Avg_array[10]=Avg_array[11];
 286:main.c        ****         Avg_array[11]=Avg_array[12];
 287:main.c        ****         Avg_array[12]=Avg_array[13];
 288:main.c        ****         Avg_array[13]=Avg_array[14];
 289:main.c        ****         Avg_array[14]=Avg_array[15];
 290:main.c        ****         Avg_array[15]=Avg_array[16];
 291:main.c        ****         Avg_array[16]=Avg_array[17];
 292:main.c        ****         Avg_array[17]=Avg_array[18];
 293:main.c        ****         Avg_array[18]=Avg_array[19];
 294:main.c        ****         Avg_array[19]=Avg_array[20];
 295:main.c        ****         Avg_array[20]=Avg_array[21];
 296:main.c        ****         Avg_array[21]=Avg_array[22];
 297:main.c        ****         Avg_array[22]=Avg_array[23];
 298:main.c        ****         Avg_array[23]=Avg_array[24];
 299:main.c        ****         
 300:main.c        ****         VDAC8_2_SetValue(current_Avg);
 301:main.c        ****     */
 302:main.c        ****     
 303:main.c        **** }
 304:main.c        **** 
 305:main.c        **** CY_ISR(Encoder)
 306:main.c        **** {
 189              		.loc 1 306 0
 190              		.cfi_startproc
 191              		@ args = 0, pretend = 0, frame = 0
 192              		@ frame_needed = 0, uses_anonymous_args = 0
 193 0000 10B5     		push	{r4, lr}
 194              		.cfi_def_cfa_offset 8
 195              		.cfi_offset 4, -8
 196              		.cfi_offset 14, -4
 307:main.c        ****         /*Clear interrupt flag*/
 308:main.c        ****         Counter_1_STATUS;
 197              		.loc 1 308 0
 198 0002 1D4B     		ldr	r3, .L17+8
 199 0004 1B78     		ldrb	r3, [r3]	@ zero_extendqisi2
 309:main.c        ****     
 310:main.c        ****         change_cnt++;
 200              		.loc 1 310 0
 201 0006 1D4C     		ldr	r4, .L17+12
 202 0008 2389     		ldrh	r3, [r4, #8]
 203 000a 0133     		adds	r3, r3, #1
ARM GAS  C:\Users\monis\AppData\Local\Temp\ccxFy7O5.s 			page 10


 204 000c 2381     		strh	r3, [r4, #8]	@ movhi
 311:main.c        ****         
 312:main.c        ****     
 313:main.c        ****         prev_count = curr_count;  //assigns previous counter value to compare to current value
 205              		.loc 1 313 0
 206 000e A389     		ldrh	r3, [r4, #12]
 207 0010 6381     		strh	r3, [r4, #10]	@ movhi
 314:main.c        ****         curr_count = QuadDec_1_GetCounter();  //reads in new counter value from quadrature decoder
 208              		.loc 1 314 0
 209 0012 FFF7FEFF 		bl	QuadDec_1_GetCounter
 210              	.LVL4:
 211 0016 80B2     		uxth	r0, r0
 212 0018 A081     		strh	r0, [r4, #12]	@ movhi
 315:main.c        ****        
 316:main.c        ****         
 317:main.c        ****         diff = curr_count - prev_count;  // find the difference between previous and current count 
 213              		.loc 1 317 0
 214 001a 6389     		ldrh	r3, [r4, #10]
 215 001c C01A     		subs	r0, r0, r3
 216 001e 80B2     		uxth	r0, r0
 217 0020 03B2     		sxth	r3, r0
 218 0022 E381     		strh	r3, [r4, #14]	@ movhi
 318:main.c        ****         
 319:main.c        ****         if (diff <0)
 219              		.loc 1 319 0
 220 0024 002B     		cmp	r3, #0
 221 0026 01DA     		bge	.L15
 320:main.c        ****         {
 321:main.c        ****             diff = -diff;
 222              		.loc 1 321 0
 223 0028 4042     		negs	r0, r0
 224 002a E081     		strh	r0, [r4, #14]	@ movhi
 225              	.L15:
 322:main.c        ****         }
 323:main.c        ****         
 324:main.c        ****         
 325:main.c        ****         degrees = diff* 5.625;   // converts a change in counts to a change in degrees
 226              		.loc 1 325 0
 227 002c 134C     		ldr	r4, .L17+12
 228 002e B4F90E00 		ldrsh	r0, [r4, #14]
 229 0032 FFF7FEFF 		bl	__aeabi_i2d
 230              	.LVL5:
 231 0036 0022     		movs	r2, #0
 232 0038 114B     		ldr	r3, .L17+16
 233 003a FFF7FEFF 		bl	__aeabi_dmul
 234              	.LVL6:
 235 003e FFF7FEFF 		bl	__aeabi_d2f
 236              	.LVL7:
 237 0042 2061     		str	r0, [r4, #16]	@ float
 326:main.c        ****         
 327:main.c        ****         RPM_f = degrees/ sample_period;   // sampling period is 100ms, this gives a rate in degrees
 238              		.loc 1 327 0
 239 0044 FFF7FEFF 		bl	__aeabi_f2d
 240              	.LVL8:
 241 0048 09A3     		adr	r3, .L17
 242 004a D3E90023 		ldrd	r2, [r3]
 243 004e FFF7FEFF 		bl	__aeabi_ddiv
ARM GAS  C:\Users\monis\AppData\Local\Temp\ccxFy7O5.s 			page 11


 244              	.LVL9:
 245 0052 FFF7FEFF 		bl	__aeabi_d2f
 246              	.LVL10:
 328:main.c        ****         
 329:main.c        ****         RPM_f = RPM_f/18.75;  //divide by gear ratio to get motor shaft speed in degrees / second
 247              		.loc 1 329 0
 248 0056 0B49     		ldr	r1, .L17+20
 249 0058 FFF7FEFF 		bl	__aeabi_fdiv
 250              	.LVL11:
 251 005c 6061     		str	r0, [r4, #20]	@ float
 330:main.c        ****         
 331:main.c        ****         RPM_i = (uint16_t) RPM_f/6;  // converts rate to rotations/min
 252              		.loc 1 331 0
 253 005e FFF7FEFF 		bl	__aeabi_f2uiz
 254              	.LVL12:
 255 0062 80B2     		uxth	r0, r0
 256 0064 084B     		ldr	r3, .L17+24
 257 0066 A3FB0030 		umull	r3, r0, r3, r0
 258 006a 8008     		lsrs	r0, r0, #2
 259 006c 2083     		strh	r0, [r4, #24]	@ movhi
 260 006e 10BD     		pop	{r4, pc}
 261              	.L18:
 262              		.align	3
 263              	.L17:
 264 0070 7B14AE47 		.word	1202590843
 265 0074 E17A843F 		.word	1065646817
 266 0078 63640040 		.word	1073767523
 267 007c 00000000 		.word	.LANCHOR0
 268 0080 00801640 		.word	1075216384
 269 0084 00009641 		.word	1100349440
 270 0088 ABAAAAAA 		.word	-1431655765
 271              		.cfi_endproc
 272              	.LFE66:
 273              		.size	Encoder, .-Encoder
 274              		.section	.text.Motor_Current,"ax",%progbits
 275              		.align	2
 276              		.global	Motor_Current
 277              		.thumb
 278              		.thumb_func
 279              		.type	Motor_Current, %function
 280              	Motor_Current:
 281              	.LFB64:
 163:main.c        ****     /*
 282              		.loc 1 163 0
 283              		.cfi_startproc
 284              		@ args = 0, pretend = 0, frame = 0
 285              		@ frame_needed = 0, uses_anonymous_args = 0
 286              		@ link register save eliminated.
 287 0000 7047     		bx	lr
 288              		.cfi_endproc
 289              	.LFE64:
 290              		.size	Motor_Current, .-Motor_Current
 291              		.global	__aeabi_dsub
 292 0002 00BF     		.section	.text.main,"ax",%progbits
 293              		.align	2
 294              		.global	main
 295              		.thumb
ARM GAS  C:\Users\monis\AppData\Local\Temp\ccxFy7O5.s 			page 12


 296              		.thumb_func
 297              		.type	main, %function
 298              	main:
 299              	.LFB67:
 332:main.c        ****         
 333:main.c        ****         /*
 334:main.c        ****         
 335:main.c        ****         measured_cmp = (1.075*RPM_i) + 31.33;  //converts measure RPM to PWM compare value
 336:main.c        ****         
 337:main.c        ****         error = compare_ref - measured_cmp;  //determine error term
 338:main.c        ****         
 339:main.c        ****         
 340:main.c        ****         integral = integral + error;       // integral of error term
 341:main.c        ****         
 342:main.c        ****         cmp_delta = (int8_t) (Kp3*error)+ (Ki3*integral);
 343:main.c        ****         
 344:main.c        ****         output_cmp += cmp_delta; // change PWM compare value base on PI controller output
 345:main.c        **** 
 346:main.c        ****        */
 347:main.c        **** }
 348:main.c        **** 
 349:main.c        **** 
 350:main.c        **** 
 351:main.c        **** 
 352:main.c        **** 
 353:main.c        **** int main(void)
 354:main.c        **** {
 300              		.loc 1 354 0
 301              		.cfi_startproc
 302              		@ args = 0, pretend = 0, frame = 0
 303              		@ frame_needed = 0, uses_anonymous_args = 0
 304              		.loc 1 354 0
 305 0000 2DE9F843 		push	{r3, r4, r5, r6, r7, r8, r9, lr}
 306              		.cfi_def_cfa_offset 32
 307              		.cfi_offset 3, -32
 308              		.cfi_offset 4, -28
 309              		.cfi_offset 5, -24
 310              		.cfi_offset 6, -20
 311              		.cfi_offset 7, -16
 312              		.cfi_offset 8, -12
 313              		.cfi_offset 9, -8
 314              		.cfi_offset 14, -4
 355:main.c        ****     CyGlobalIntEnable; /* Enable global interrupts. */
 315              		.loc 1 355 0
 316              		.syntax unified
 317              	@ 355 "main.c" 1
 318 0004 62B6     		CPSIE   i
 319              	@ 0 "" 2
 356:main.c        **** 
 357:main.c        ****     ADC_SAR_1_Start();
 320              		.loc 1 357 0
 321              		.thumb
 322              		.syntax unified
 323 0006 FFF7FEFF 		bl	ADC_SAR_1_Start
 324              	.LVL13:
 358:main.c        ****     ADC_SAR_1_StartConvert();
 325              		.loc 1 358 0
ARM GAS  C:\Users\monis\AppData\Local\Temp\ccxFy7O5.s 			page 13


 326 000a FFF7FEFF 		bl	ADC_SAR_1_StartConvert
 327              	.LVL14:
 359:main.c        ****      ADC_SAR_2_Start();
 328              		.loc 1 359 0
 329 000e FFF7FEFF 		bl	ADC_SAR_2_Start
 330              	.LVL15:
 360:main.c        ****     ADC_SAR_2_StartConvert();
 331              		.loc 1 360 0
 332 0012 FFF7FEFF 		bl	ADC_SAR_2_StartConvert
 333              	.LVL16:
 361:main.c        ****    
 362:main.c        ****    
 363:main.c        ****     PWM_1_Start();
 334              		.loc 1 363 0
 335 0016 FFF7FEFF 		bl	PWM_1_Start
 336              	.LVL17:
 364:main.c        ****     //PWM_2_Start();
 365:main.c        ****     
 366:main.c        ****     PGA_1_Start();
 337              		.loc 1 366 0
 338 001a FFF7FEFF 		bl	PGA_1_Start
 339              	.LVL18:
 367:main.c        ****     //PGA_2_Start();
 368:main.c        ****     
 369:main.c        ****     VDAC8_1_Start();
 340              		.loc 1 369 0
 341 001e FFF7FEFF 		bl	VDAC8_1_Start
 342              	.LVL19:
 370:main.c        ****     VDAC8_2_Start();
 343              		.loc 1 370 0
 344 0022 FFF7FEFF 		bl	VDAC8_2_Start
 345              	.LVL20:
 371:main.c        ****     
 372:main.c        ****     LCD_Char_1_Start();
 346              		.loc 1 372 0
 347 0026 FFF7FEFF 		bl	LCD_Char_1_Start
 348              	.LVL21:
 373:main.c        ****     LCD_Char_1_Position(0u, 0u);
 349              		.loc 1 373 0
 350 002a 0021     		movs	r1, #0
 351 002c 0846     		mov	r0, r1
 352 002e FFF7FEFF 		bl	LCD_Char_1_Position
 353              	.LVL22:
 374:main.c        ****     QuadDec_1_Start();
 354              		.loc 1 374 0
 355 0032 FFF7FEFF 		bl	QuadDec_1_Start
 356              	.LVL23:
 375:main.c        ****     Counter_1_Start();
 357              		.loc 1 375 0
 358 0036 FFF7FEFF 		bl	Counter_1_Start
 359              	.LVL24:
 376:main.c        ****     
 377:main.c        ****     Comp_1_Start();
 360              		.loc 1 377 0
 361 003a FFF7FEFF 		bl	Comp_1_Start
 362              	.LVL25:
 378:main.c        ****   
ARM GAS  C:\Users\monis\AppData\Local\Temp\ccxFy7O5.s 			page 14


 379:main.c        ****     isr_1_StartEx(Encoder);
 363              		.loc 1 379 0
 364 003e 4048     		ldr	r0, .L26+16
 365 0040 FFF7FEFF 		bl	isr_1_StartEx
 366              	.LVL26:
 380:main.c        ****     isr_2_StartEx(Count);
 367              		.loc 1 380 0
 368 0044 3F48     		ldr	r0, .L26+20
 369 0046 FFF7FEFF 		bl	isr_2_StartEx
 370              	.LVL27:
 381:main.c        ****    // isr_3_StartEx(Motor_Current);
 382:main.c        ****     isr_4_StartEx(CMP);
 371              		.loc 1 382 0
 372 004a 3F48     		ldr	r0, .L26+24
 373 004c FFF7FEFF 		bl	isr_4_StartEx
 374              	.LVL28:
 383:main.c        ****     
 384:main.c        ****    
 385:main.c        ****     
 386:main.c        ****     
 387:main.c        ****     
 388:main.c        ****     
 389:main.c        ****     VDAC8_2_SetValue(CMP_ref);
 375              		.loc 1 389 0
 376 0050 9620     		movs	r0, #150
 377 0052 FFF7FEFF 		bl	VDAC8_2_SetValue
 378              	.LVL29:
 390:main.c        ****     
 391:main.c        ****     
 392:main.c        ****     int j=0;
 393:main.c        ****      int i=0;
 379              		.loc 1 393 0
 380 0056 0025     		movs	r5, #0
 392:main.c        ****      int i=0;
 381              		.loc 1 392 0
 382 0058 2C46     		mov	r4, r5
 383              	.LVL30:
 384              	.L21:
 394:main.c        **** 
 395:main.c        ****     for(;;)
 396:main.c        ****     { 
 397:main.c        ****         
 398:main.c        ****         /*
 399:main.c        ****         if (change_cnt==30)
 400:main.c        ****         {
 401:main.c        ****             RPM_ref=100;
 402:main.c        ****         }
 403:main.c        ****         
 404:main.c        ****         if (change_cnt==60)
 405:main.c        ****         {
 406:main.c        ****             change_cnt=0;
 407:main.c        ****             RPM_ref=120;
 408:main.c        ****         }
 409:main.c        ****         */
 410:main.c        ****         
 411:main.c        ****         //extra credit /closed loop control//
 412:main.c        ****         
ARM GAS  C:\Users\monis\AppData\Local\Temp\ccxFy7O5.s 			page 15


 413:main.c        ****        
 414:main.c        ****         
 415:main.c        ****        
 416:main.c        ****         /*
 417:main.c        ****         if (peak_cnt==6)
 418:main.c        ****         {
 419:main.c        ****             peak_cnt=0;
 420:main.c        ****              Digital_Output_1_Write(1);
 421:main.c        ****             
 422:main.c        ****         }
 423:main.c        ****         */
 424:main.c        ****         
 425:main.c        ****          
 426:main.c        ****         
 427:main.c        ****         
 428:main.c        ****         
 429:main.c        ****         ADC_SAR_2_IsEndConversion(ADC_SAR_2_RETURN_STATUS);
 385              		.loc 1 429 0
 386 005a 0120     		movs	r0, #1
 387 005c FFF7FEFF 		bl	ADC_SAR_2_IsEndConversion
 388              	.LVL31:
 430:main.c        ****       
 431:main.c        ****         current_sample=ADC_SAR_2_GetResult8( );
 389              		.loc 1 431 0
 390 0060 FFF7FEFF 		bl	ADC_SAR_2_GetResult8
 391              	.LVL32:
 392 0064 C0B2     		uxtb	r0, r0
 393 0066 394B     		ldr	r3, .L26+28
 394 0068 9876     		strb	r0, [r3, #26]
 432:main.c        ****         
 433:main.c        ****         if(current_sample > max_value)
 395              		.loc 1 433 0
 396 006a DB7E     		ldrb	r3, [r3, #27]	@ zero_extendqisi2
 397 006c 9842     		cmp	r0, r3
 398 006e 01D9     		bls	.L22
 434:main.c        ****         {
 435:main.c        ****           max_value=current_sample;  
 399              		.loc 1 435 0
 400 0070 364B     		ldr	r3, .L26+28
 401 0072 D876     		strb	r0, [r3, #27]
 402              	.L22:
 436:main.c        ****         }
 437:main.c        ****         
 438:main.c        ****         
 439:main.c        ****          VDAC8_2_SetValue((max_value*1.16)-(max_value*0.22));
 403              		.loc 1 439 0
 404 0074 354B     		ldr	r3, .L26+28
 405 0076 D87E     		ldrb	r0, [r3, #27]	@ zero_extendqisi2
 406 0078 FFF7FEFF 		bl	__aeabi_i2d
 407              	.LVL33:
 408 007c 8046     		mov	r8, r0
 409 007e 8946     		mov	r9, r1
 410 0080 2BA3     		adr	r3, .L26
 411 0082 D3E90023 		ldrd	r2, [r3]
 412 0086 FFF7FEFF 		bl	__aeabi_dmul
 413              	.LVL34:
 414 008a 0646     		mov	r6, r0
ARM GAS  C:\Users\monis\AppData\Local\Temp\ccxFy7O5.s 			page 16


 415 008c 0F46     		mov	r7, r1
 416 008e 2AA3     		adr	r3, .L26+8
 417 0090 D3E90023 		ldrd	r2, [r3]
 418 0094 4046     		mov	r0, r8
 419 0096 4946     		mov	r1, r9
 420 0098 FFF7FEFF 		bl	__aeabi_dmul
 421              	.LVL35:
 422 009c 0246     		mov	r2, r0
 423 009e 0B46     		mov	r3, r1
 424 00a0 3046     		mov	r0, r6
 425 00a2 3946     		mov	r1, r7
 426 00a4 FFF7FEFF 		bl	__aeabi_dsub
 427              	.LVL36:
 428 00a8 FFF7FEFF 		bl	__aeabi_d2uiz
 429              	.LVL37:
 430 00ac C0B2     		uxtb	r0, r0
 431 00ae FFF7FEFF 		bl	VDAC8_2_SetValue
 432              	.LVL38:
 440:main.c        ****         /*
 441:main.c        ****         if(current_sample <= min_value+10)
 442:main.c        ****         {
 443:main.c        ****             
 444:main.c        ****             
 445:main.c        ****             
 446:main.c        ****             if (speed_cnt<5)
 447:main.c        ****              {}
 448:main.c        ****             else
 449:main.c        ****             {
 450:main.c        ****             flag=1;
 451:main.c        ****             Digital_Output_1_Write(1);
 452:main.c        ****             
 453:main.c        ****             
 454:main.c        ****             
 455:main.c        ****             current_RPM = 60000.0/(speed_cnt*(18.75)*6);//convert ms/ rotation to rotations/min
 456:main.c        ****             
 457:main.c        ****             speed_cnt=0;
 458:main.c        ****             if ( prev_RPM>80 && (current_RPM-prev_RPM >50 || current_RPM-prev_RPM< -50))
 459:main.c        ****             {
 460:main.c        ****                 current_RPM = prev_RPM;
 461:main.c        ****             }
 462:main.c        ****             
 463:main.c        ****             error =  RPM_ref - current_RPM;
 464:main.c        ****             
 465:main.c        ****             Output_Delta = (int8_t) (Kp*error);
 466:main.c        ****         
 467:main.c        ****             Output_Volt += Output_Delta; // change PWM compare value base on PI controller output
 468:main.c        ****             
 469:main.c        ****             if(Output_Volt > 255)
 470:main.c        ****             Output_Volt=156;
 471:main.c        ****             
 472:main.c        ****             if(Output_Volt <200)
 473:main.c        ****             Output_Volt=80;
 474:main.c        ****        
 475:main.c        ****             
 476:main.c        ****             prev_RPM=current_RPM;
 477:main.c        ****             }
 478:main.c        ****         }
ARM GAS  C:\Users\monis\AppData\Local\Temp\ccxFy7O5.s 			page 17


 479:main.c        ****         
 480:main.c        ****         
 481:main.c        ****         */
 482:main.c        ****         
 483:main.c        ****         
 484:main.c        ****         
 485:main.c        ****         
 486:main.c        ****         // i++;
 487:main.c        ****         
 488:main.c        ****         
 489:main.c        ****        
 490:main.c        ****         
 491:main.c        ****         
 492:main.c        ****         // ADC_SAR_1_IsEndConversion(ADC_SAR_1_RETURN_STATUS);
 493:main.c        ****             
 494:main.c        ****          //  VDAC8_1_SetValue(ADC_SAR_1_GetResult8( ));
 495:main.c        ****         
 496:main.c        ****         VDAC8_1_SetValue(Output_Volt);
 433              		.loc 1 496 0
 434 00b2 274B     		ldr	r3, .L26+32
 435 00b4 1879     		ldrb	r0, [r3, #4]	@ zero_extendqisi2
 436 00b6 FFF7FEFF 		bl	VDAC8_1_SetValue
 437              	.LVL39:
 497:main.c        ****        
 498:main.c        ****         j++;
 438              		.loc 1 498 0
 439 00ba 0134     		adds	r4, r4, #1
 440              	.LVL40:
 499:main.c        ****             if(j==100000)
 441              		.loc 1 499 0
 442 00bc 254B     		ldr	r3, .L26+36
 443 00be 9C42     		cmp	r4, r3
 444 00c0 02D1     		bne	.L23
 445              	.LVL41:
 500:main.c        ****             {
 501:main.c        ****                 j=0;
 502:main.c        ****                 max_value=0;
 446              		.loc 1 502 0
 447 00c2 0024     		movs	r4, #0
 448 00c4 214B     		ldr	r3, .L26+28
 449 00c6 DC76     		strb	r4, [r3, #27]
 450              	.LVL42:
 451              	.L23:
 503:main.c        ****             }
 504:main.c        ****         
 505:main.c        ****             
 506:main.c        ****         i++;
 452              		.loc 1 506 0
 453 00c8 0135     		adds	r5, r5, #1
 454              	.LVL43:
 507:main.c        ****         if (i==50000)
 455              		.loc 1 507 0
 456 00ca 4CF25033 		movw	r3, #50000
 457 00ce 9D42     		cmp	r5, r3
 458 00d0 C3D1     		bne	.L21
 459              	.LVL44:
 508:main.c        ****         {
ARM GAS  C:\Users\monis\AppData\Local\Temp\ccxFy7O5.s 			page 18


 509:main.c        ****             i=0;
 510:main.c        ****             
 511:main.c        ****             
 512:main.c        ****             
 513:main.c        ****             
 514:main.c        ****             
 515:main.c        ****             
 516:main.c        ****             
 517:main.c        ****             LCD_Char_1_Position(0u, 0u);
 460              		.loc 1 517 0
 461 00d2 0021     		movs	r1, #0
 462 00d4 0846     		mov	r0, r1
 463 00d6 FFF7FEFF 		bl	LCD_Char_1_Position
 464              	.LVL45:
 518:main.c        ****         
 519:main.c        ****             LCD_Char_1_PrintString ("                ");   // clear character display of previous d
 465              		.loc 1 519 0
 466 00da 1F4E     		ldr	r6, .L26+40
 467 00dc 3046     		mov	r0, r6
 468 00de FFF7FEFF 		bl	LCD_Char_1_PrintString
 469              	.LVL46:
 520:main.c        ****             
 521:main.c        ****             LCD_Char_1_Position(0u, 0u);
 470              		.loc 1 521 0
 471 00e2 0021     		movs	r1, #0
 472 00e4 0846     		mov	r0, r1
 473 00e6 FFF7FEFF 		bl	LCD_Char_1_Position
 474              	.LVL47:
 522:main.c        ****             
 523:main.c        ****             LCD_Char_1_PrintNumber(RPM_i);    // write RPM value to display
 475              		.loc 1 523 0
 476 00ea 184D     		ldr	r5, .L26+28
 477 00ec 288B     		ldrh	r0, [r5, #24]
 478 00ee FFF7FEFF 		bl	LCD_Char_1_PrintU32Number
 479              	.LVL48:
 524:main.c        ****             
 525:main.c        ****             LCD_Char_1_Position(0u, 4u);
 480              		.loc 1 525 0
 481 00f2 0421     		movs	r1, #4
 482 00f4 0020     		movs	r0, #0
 483 00f6 FFF7FEFF 		bl	LCD_Char_1_Position
 484              	.LVL49:
 526:main.c        ****             
 527:main.c        ****             LCD_Char_1_PrintString ("ERPM");   // write units to display
 485              		.loc 1 527 0
 486 00fa 1848     		ldr	r0, .L26+44
 487 00fc FFF7FEFF 		bl	LCD_Char_1_PrintString
 488              	.LVL50:
 528:main.c        ****             
 529:main.c        ****             //LCD_Char_1_Position(0u, 4u);
 530:main.c        ****             
 531:main.c        ****             //LCD_Char_1_PrintNumber(RPM_i);    // write RPM value to display
 532:main.c        ****             
 533:main.c        ****             LCD_Char_1_Position(1u, 0u);
 489              		.loc 1 533 0
 490 0100 0021     		movs	r1, #0
 491 0102 0120     		movs	r0, #1
ARM GAS  C:\Users\monis\AppData\Local\Temp\ccxFy7O5.s 			page 19


 492 0104 FFF7FEFF 		bl	LCD_Char_1_Position
 493              	.LVL51:
 534:main.c        ****         
 535:main.c        ****             LCD_Char_1_PrintString ("                ");   // clear character display of previous d
 494              		.loc 1 535 0
 495 0108 3046     		mov	r0, r6
 496 010a FFF7FEFF 		bl	LCD_Char_1_PrintString
 497              	.LVL52:
 536:main.c        ****             
 537:main.c        ****             LCD_Char_1_Position(1u, 0u);
 498              		.loc 1 537 0
 499 010e 0021     		movs	r1, #0
 500 0110 0120     		movs	r0, #1
 501 0112 FFF7FEFF 		bl	LCD_Char_1_Position
 502              	.LVL53:
 538:main.c        ****             
 539:main.c        ****             LCD_Char_1_PrintNumber(current_RPM);    // write RPM value to display
 503              		.loc 1 539 0
 504 0116 A888     		ldrh	r0, [r5, #4]
 505 0118 FFF7FEFF 		bl	LCD_Char_1_PrintU32Number
 506              	.LVL54:
 540:main.c        ****             
 541:main.c        ****             LCD_Char_1_Position(1u, 7u);
 507              		.loc 1 541 0
 508 011c 0721     		movs	r1, #7
 509 011e 0120     		movs	r0, #1
 510 0120 FFF7FEFF 		bl	LCD_Char_1_Position
 511              	.LVL55:
 542:main.c        ****             
 543:main.c        ****             LCD_Char_1_PrintString ("CRPM");   // write units to display
 512              		.loc 1 543 0
 513 0124 0E48     		ldr	r0, .L26+48
 514 0126 FFF7FEFF 		bl	LCD_Char_1_PrintString
 515              	.LVL56:
 509:main.c        ****             
 516              		.loc 1 509 0
 517 012a 0025     		movs	r5, #0
 518 012c 95E7     		b	.L21
 519              	.L27:
 520 012e 00BF     		.align	3
 521              	.L26:
 522 0130 8FC2F528 		.word	687194767
 523 0134 5C8FF23F 		.word	1072861020
 524 0138 295C8FC2 		.word	-1030792151
 525 013c F528CC3F 		.word	1070344437
 526 0140 00000000 		.word	Encoder
 527 0144 00000000 		.word	Count
 528 0148 00000000 		.word	CMP
 529 014c 00000000 		.word	.LANCHOR0
 530 0150 00000000 		.word	.LANCHOR1
 531 0154 A0860100 		.word	100000
 532 0158 00000000 		.word	.LC0
 533 015c 14000000 		.word	.LC1
 534 0160 1C000000 		.word	.LC2
 535              		.cfi_endproc
 536              	.LFE67:
 537              		.size	main, .-main
ARM GAS  C:\Users\monis\AppData\Local\Temp\ccxFy7O5.s 			page 20


 538              		.global	Output_Delta
 539              		.global	Output_Volt
 540              		.global	max_value
 541              		.global	l
 542              		.global	k
 543              		.comm	moving_avg,1,1
 544              		.global	sum
 545              		.global	newAvg
 546              		.global	pos
 547              		.global	DWN_FLAG
 548              		.global	UP_FLAG
 549              		.global	peak_cnt
 550              		.global	high_avg
 551              		.global	low_avg
 552              		.global	high_sum
 553              		.global	low_sum
 554              		.global	sample_array2
 555              		.global	sample_array1
 556              		.global	current_sample
 557              		.global	current_Avg
 558              		.global	Avg_array
 559              		.global	flag
 560              		.global	error
 561              		.global	prev_RPM
 562              		.global	RPM_ref
 563              		.global	current_RPM
 564              		.global	speed_cnt
 565              		.global	change_cnt
 566              		.global	RPM_i
 567              		.global	RPM_f
 568              		.global	degrees
 569              		.global	diff
 570              		.global	curr_count
 571              		.global	prev_count
 572              		.data
 573              		.align	1
 574              		.set	.LANCHOR1,. + 0
 575              		.type	prev_RPM, %object
 576              		.size	prev_RPM, 2
 577              	prev_RPM:
 578 0000 C900     		.short	201
 579              		.type	RPM_ref, %object
 580              		.size	RPM_ref, 2
 581              	RPM_ref:
 582 0002 CD00     		.short	205
 583              		.type	Output_Volt, %object
 584              		.size	Output_Volt, 2
 585              	Output_Volt:
 586 0004 FF00     		.short	255
 587              		.section	.rodata.str1.4,"aMS",%progbits,1
 588              		.align	2
 589              	.LC0:
 590 0000 20202020 		.ascii	"                \000"
 590      20202020 
 590      20202020 
 590      20202020 
 590      00
ARM GAS  C:\Users\monis\AppData\Local\Temp\ccxFy7O5.s 			page 21


 591 0011 000000   		.space	3
 592              	.LC1:
 593 0014 4552504D 		.ascii	"ERPM\000"
 593      00
 594 0019 000000   		.space	3
 595              	.LC2:
 596 001c 4352504D 		.ascii	"CRPM\000"
 596      00
 597              		.bss
 598              		.align	2
 599              		.set	.LANCHOR0,. + 0
 600              		.type	peak_cnt, %object
 601              		.size	peak_cnt, 1
 602              	peak_cnt:
 603 0000 00       		.space	1
 604 0001 00       		.space	1
 605              		.type	speed_cnt, %object
 606              		.size	speed_cnt, 2
 607              	speed_cnt:
 608 0002 0000     		.space	2
 609              		.type	current_RPM, %object
 610              		.size	current_RPM, 2
 611              	current_RPM:
 612 0004 0000     		.space	2
 613              		.type	error, %object
 614              		.size	error, 2
 615              	error:
 616 0006 0000     		.space	2
 617              		.type	change_cnt, %object
 618              		.size	change_cnt, 2
 619              	change_cnt:
 620 0008 0000     		.space	2
 621              		.type	prev_count, %object
 622              		.size	prev_count, 2
 623              	prev_count:
 624 000a 0000     		.space	2
 625              		.type	curr_count, %object
 626              		.size	curr_count, 2
 627              	curr_count:
 628 000c 0000     		.space	2
 629              		.type	diff, %object
 630              		.size	diff, 2
 631              	diff:
 632 000e 0000     		.space	2
 633              		.type	degrees, %object
 634              		.size	degrees, 4
 635              	degrees:
 636 0010 00000000 		.space	4
 637              		.type	RPM_f, %object
 638              		.size	RPM_f, 4
 639              	RPM_f:
 640 0014 00000000 		.space	4
 641              		.type	RPM_i, %object
 642              		.size	RPM_i, 2
 643              	RPM_i:
 644 0018 0000     		.space	2
 645              		.type	current_sample, %object
ARM GAS  C:\Users\monis\AppData\Local\Temp\ccxFy7O5.s 			page 22


 646              		.size	current_sample, 1
 647              	current_sample:
 648 001a 00       		.space	1
 649              		.type	max_value, %object
 650              		.size	max_value, 1
 651              	max_value:
 652 001b 00       		.space	1
 653              		.type	Output_Delta, %object
 654              		.size	Output_Delta, 1
 655              	Output_Delta:
 656 001c 00       		.space	1
 657 001d 000000   		.space	3
 658              		.type	l, %object
 659              		.size	l, 4
 660              	l:
 661 0020 00000000 		.space	4
 662              		.type	k, %object
 663              		.size	k, 4
 664              	k:
 665 0024 00000000 		.space	4
 666              		.type	sum, %object
 667              		.size	sum, 4
 668              	sum:
 669 0028 00000000 		.space	4
 670              		.type	newAvg, %object
 671              		.size	newAvg, 4
 672              	newAvg:
 673 002c 00000000 		.space	4
 674              		.type	pos, %object
 675              		.size	pos, 4
 676              	pos:
 677 0030 00000000 		.space	4
 678              		.type	DWN_FLAG, %object
 679              		.size	DWN_FLAG, 1
 680              	DWN_FLAG:
 681 0034 00       		.space	1
 682              		.type	UP_FLAG, %object
 683              		.size	UP_FLAG, 1
 684              	UP_FLAG:
 685 0035 00       		.space	1
 686              		.type	high_avg, %object
 687              		.size	high_avg, 1
 688              	high_avg:
 689 0036 00       		.space	1
 690              		.type	low_avg, %object
 691              		.size	low_avg, 1
 692              	low_avg:
 693 0037 00       		.space	1
 694              		.type	high_sum, %object
 695              		.size	high_sum, 2
 696              	high_sum:
 697 0038 0000     		.space	2
 698 003a 0000     		.space	2
 699              		.type	low_sum, %object
 700              		.size	low_sum, 4
 701              	low_sum:
 702 003c 00000000 		.space	4
ARM GAS  C:\Users\monis\AppData\Local\Temp\ccxFy7O5.s 			page 23


 703              		.type	sample_array2, %object
 704              		.size	sample_array2, 20
 705              	sample_array2:
 706 0040 00000000 		.space	20
 706      00000000 
 706      00000000 
 706      00000000 
 706      00000000 
 707              		.type	sample_array1, %object
 708              		.size	sample_array1, 20
 709              	sample_array1:
 710 0054 00000000 		.space	20
 710      00000000 
 710      00000000 
 710      00000000 
 710      00000000 
 711              		.type	current_Avg, %object
 712              		.size	current_Avg, 1
 713              	current_Avg:
 714 0068 00       		.space	1
 715 0069 000000   		.space	3
 716              		.type	Avg_array, %object
 717              		.size	Avg_array, 25
 718              	Avg_array:
 719 006c 00000000 		.space	25
 719      00000000 
 719      00000000 
 719      00000000 
 719      00000000 
 720              		.type	flag, %object
 721              		.size	flag, 1
 722              	flag:
 723 0085 00       		.space	1
 724              		.text
 725              	.Letext0:
 726              		.file 2 "c:\\program files (x86)\\cypress\\psoc creator\\4.1\\psoc creator\\import\\gnu\\arm\\5.4.
 727              		.file 3 "c:\\program files (x86)\\cypress\\psoc creator\\4.1\\psoc creator\\import\\gnu\\arm\\5.4.
 728              		.file 4 "Generated_Source\\PSoC5/cytypes.h"
 729              		.file 5 "Generated_Source\\PSoC5/core_cm3.h"
 730              		.file 6 "Generated_Source\\PSoC5/QuadDec_1.h"
 731              		.file 7 "Generated_Source\\PSoC5/ADC_SAR_1.h"
 732              		.file 8 "Generated_Source\\PSoC5/ADC_SAR_2.h"
 733              		.file 9 "Generated_Source\\PSoC5/PWM_1.h"
 734              		.file 10 "Generated_Source\\PSoC5/PGA_1.h"
 735              		.file 11 "Generated_Source\\PSoC5/VDAC8_1.h"
 736              		.file 12 "Generated_Source\\PSoC5/VDAC8_2.h"
 737              		.file 13 "Generated_Source\\PSoC5/LCD_Char_1.h"
 738              		.file 14 "Generated_Source\\PSoC5/Counter_1.h"
 739              		.file 15 "Generated_Source\\PSoC5/Comp_1.h"
 740              		.file 16 "Generated_Source\\PSoC5/isr_1.h"
 741              		.file 17 "Generated_Source\\PSoC5/isr_2.h"
 742              		.file 18 "Generated_Source\\PSoC5/isr_4.h"