ARM GAS  C:\Users\monis\AppData\Local\Temp\ccuizwHE.s 			page 1


   1              		.syntax unified
   2              		.cpu cortex-m3
   3              		.fpu softvfp
   4              		.eabi_attribute 20, 1
   5              		.eabi_attribute 21, 1
   6              		.eabi_attribute 23, 3
   7              		.eabi_attribute 24, 1
   8              		.eabi_attribute 25, 1
   9              		.eabi_attribute 26, 1
  10              		.eabi_attribute 30, 1
  11              		.eabi_attribute 34, 1
  12              		.eabi_attribute 18, 4
  13              		.thumb
  14              		.syntax unified
  15              		.file	"main.c"
  16              		.text
  17              	.Ltext0:
  18              		.cfi_sections	.debug_frame
  19              		.section	.text.control_receiver,"ax",%progbits
  20              		.align	2
  21              		.global	control_receiver
  22              		.thumb
  23              		.thumb_func
  24              		.type	control_receiver, %function
  25              	control_receiver:
  26              	.LFB63:
  27              		.file 1 "main.c"
   1:main.c        **** 
   2:main.c        **** /* ========================================
   3:main.c        ****  *
   4:main.c        ****  * ECEN 5053 -  Project
   5:main.c        ****  * Kyle harlow and Monish Nene
   6:main.c        ****  *
   7:main.c        ****  * CONFIDENTIAL AND PROPRIETARY INFORMATION
   8:main.c        ****  * WHICH IS THE PROPERTY OF your company.
   9:main.c        ****  *
  10:main.c        ****  * ========================================
  11:main.c        **** */
  12:main.c        **** #include "project.h"
  13:main.c        **** #include <stdint.h>
  14:main.c        **** #define COUNTER_TICK_RATE 10000 // 10 kHz //Counter_2 count pin clock setting
  15:main.c        **** #define COUNTSPERREVOFGEAR 300 //64 COUNTER PER REV X 18.75 GEAR RATIO / 4 PULSES OF ENCODER 
  16:main.c        **** #define SECONDS 60
  17:main.c        **** #define DEMO 4
  18:main.c        **** #define resistance 2.7
  19:main.c        **** _Bool flag=0,delay_flag=1;
  20:main.c        **** int16 z_axis_acceleration = 0;
  21:main.c        **** uint16 step_count;
  22:main.c        **** uint8 potentiometer_value=0,mode_of_receiver=0;
  23:main.c        **** static int32 stepper_pos=0;
  24:main.c        **** 
  25:main.c        **** //Half Stepping (4x2 phase movement)
  26:main.c        **** //uint8 counter_clockwise_table[8][4]={ {1,0,0,1},  {0,0,0,1},  {0,0,1,1},  {0,0,1,0},  {0,1,1,0}, 
  27:main.c        **** uint8 counter_clockwise_table[8][4]={ {1,0,0,1},  {0,0,0,1},  {0,0,1,1},  {0,0,1,0},  {0,1,1,0},  {
  28:main.c        **** 
  29:main.c        **** typedef enum
  30:main.c        **** {
ARM GAS  C:\Users\monis\AppData\Local\Temp\ccuizwHE.s 			page 2


  31:main.c        ****     go_up,
  32:main.c        ****     go_down,
  33:main.c        ****     go_up_pause,
  34:main.c        ****     go_down_pause,
  35:main.c        ****     stop_at_top,
  36:main.c        ****     stop_at_bottom,
  37:main.c        **** }receiver_modes;
  38:main.c        **** 
  39:main.c        **** void control_receiver(void)
  40:main.c        **** {
  28              		.loc 1 40 0
  29              		.cfi_startproc
  30              		@ args = 0, pretend = 0, frame = 0
  31              		@ frame_needed = 0, uses_anonymous_args = 0
  32 0000 08B5     		push	{r3, lr}
  33              		.cfi_def_cfa_offset 8
  34              		.cfi_offset 3, -8
  35              		.cfi_offset 14, -4
  41:main.c        ****     potentiometer_value=ADC_SAR_2_GetResult8();
  36              		.loc 1 41 0
  37 0002 FFF7FEFF 		bl	ADC_SAR_2_GetResult8
  38              	.LVL0:
  39 0006 434B     		ldr	r3, .L17
  40 0008 1870     		strb	r0, [r3]
  42:main.c        ****     switch (mode_of_receiver)
  41              		.loc 1 42 0
  42 000a 5B78     		ldrb	r3, [r3, #1]	@ zero_extendqisi2
  43 000c 052B     		cmp	r3, #5
  44 000e 7FD8     		bhi	.L1
  45 0010 DFE803F0 		tbb	[pc, r3]
  46              	.L4:
  47 0014 03       		.byte	(.L3-.L4)/2
  48 0015 18       		.byte	(.L5-.L4)/2
  49 0016 2D       		.byte	(.L6-.L4)/2
  50 0017 49       		.byte	(.L7-.L4)/2
  51 0018 65       		.byte	(.L8-.L4)/2
  52 0019 72       		.byte	(.L9-.L4)/2
  53              		.p2align 1
  54              	.L3:
  43:main.c        ****     {
  44:main.c        ****         case go_up:
  45:main.c        ****         {
  46:main.c        ****             p3_0_Write(0);
  55              		.loc 1 46 0
  56 001a 0020     		movs	r0, #0
  57 001c FFF7FEFF 		bl	p3_0_Write
  58              	.LVL1:
  47:main.c        ****             p3_1_Write(1);
  59              		.loc 1 47 0
  60 0020 0120     		movs	r0, #1
  61 0022 FFF7FEFF 		bl	p3_1_Write
  62              	.LVL2:
  48:main.c        **** /*            if(p0_6_LDR_Top_Read()==1)
  49:main.c        ****             {
  50:main.c        ****                 mode_of_receiver= go_up_pause;
  51:main.c        ****             }
  52:main.c        **** */          if(p0_7_LDR_Bottom_Read()==0)
ARM GAS  C:\Users\monis\AppData\Local\Temp\ccuizwHE.s 			page 3


  63              		.loc 1 52 0
  64 0026 FFF7FEFF 		bl	p0_7_LDR_Bottom_Read
  65              	.LVL3:
  66 002a 18B9     		cbnz	r0, .L10
  53:main.c        ****             {
  54:main.c        ****                 mode_of_receiver= go_up_pause;
  67              		.loc 1 54 0
  68 002c 0222     		movs	r2, #2
  69 002e 394B     		ldr	r3, .L17
  70 0030 5A70     		strb	r2, [r3, #1]
  71 0032 08BD     		pop	{r3, pc}
  72              	.L10:
  55:main.c        ****             }
  56:main.c        ****             else if(potentiometer_value >= 250)
  73              		.loc 1 56 0
  74 0034 374B     		ldr	r3, .L17
  75 0036 1B78     		ldrb	r3, [r3]	@ zero_extendqisi2
  76 0038 F92B     		cmp	r3, #249
  77 003a 69D9     		bls	.L1
  57:main.c        ****             {
  58:main.c        ****                 mode_of_receiver= stop_at_top;
  78              		.loc 1 58 0
  79 003c 0422     		movs	r2, #4
  80 003e 354B     		ldr	r3, .L17
  81 0040 5A70     		strb	r2, [r3, #1]
  82 0042 08BD     		pop	{r3, pc}
  83              	.L5:
  59:main.c        ****             }
  60:main.c        ****             break;
  61:main.c        ****         }
  62:main.c        ****         case go_down:
  63:main.c        ****         {
  64:main.c        ****             p3_0_Write(1);
  84              		.loc 1 64 0
  85 0044 0120     		movs	r0, #1
  86 0046 FFF7FEFF 		bl	p3_0_Write
  87              	.LVL4:
  65:main.c        ****             p3_1_Write(0);
  88              		.loc 1 65 0
  89 004a 0020     		movs	r0, #0
  90 004c FFF7FEFF 		bl	p3_1_Write
  91              	.LVL5:
  66:main.c        ****  /*           if(p0_7_LDR_Bottom_Read()==1)
  67:main.c        ****             {
  68:main.c        ****                 mode_of_receiver= go_down_pause;
  69:main.c        ****             }
  70:main.c        **** */         if(p0_6_LDR_Top_Read()==0)
  92              		.loc 1 70 0
  93 0050 FFF7FEFF 		bl	p0_6_LDR_Top_Read
  94              	.LVL6:
  95 0054 18B9     		cbnz	r0, .L11
  71:main.c        ****             {
  72:main.c        ****                 mode_of_receiver= go_down_pause;
  96              		.loc 1 72 0
  97 0056 0322     		movs	r2, #3
  98 0058 2E4B     		ldr	r3, .L17
  99 005a 5A70     		strb	r2, [r3, #1]
ARM GAS  C:\Users\monis\AppData\Local\Temp\ccuizwHE.s 			page 4


 100 005c 08BD     		pop	{r3, pc}
 101              	.L11:
  73:main.c        ****             }
  74:main.c        ****             else if(potentiometer_value <= 4)
 102              		.loc 1 74 0
 103 005e 2D4B     		ldr	r3, .L17
 104 0060 1B78     		ldrb	r3, [r3]	@ zero_extendqisi2
 105 0062 042B     		cmp	r3, #4
 106 0064 54D8     		bhi	.L1
  75:main.c        ****             {
  76:main.c        ****                 mode_of_receiver= stop_at_bottom;
 107              		.loc 1 76 0
 108 0066 0522     		movs	r2, #5
 109 0068 2A4B     		ldr	r3, .L17
 110 006a 5A70     		strb	r2, [r3, #1]
 111 006c 08BD     		pop	{r3, pc}
 112              	.L6:
  77:main.c        ****             }
  78:main.c        ****             break;
  79:main.c        ****         }
  80:main.c        ****         case go_up_pause:
  81:main.c        ****         {
  82:main.c        ****             p3_0_Write(0);
 113              		.loc 1 82 0
 114 006e 0020     		movs	r0, #0
 115 0070 FFF7FEFF 		bl	p3_0_Write
 116              	.LVL7:
  83:main.c        ****             p3_1_Write(0);
 117              		.loc 1 83 0
 118 0074 0020     		movs	r0, #0
 119 0076 FFF7FEFF 		bl	p3_1_Write
 120              	.LVL8:
  84:main.c        ****             if(p0_6_LDR_Top_Read()==0)
 121              		.loc 1 84 0
 122 007a FFF7FEFF 		bl	p0_6_LDR_Top_Read
 123              	.LVL9:
 124 007e 18B9     		cbnz	r0, .L12
  85:main.c        ****             {
  86:main.c        ****                 mode_of_receiver= go_up;
 125              		.loc 1 86 0
 126 0080 0022     		movs	r2, #0
 127 0082 244B     		ldr	r3, .L17
 128 0084 5A70     		strb	r2, [r3, #1]
 129 0086 08BD     		pop	{r3, pc}
 130              	.L12:
  87:main.c        ****             }
  88:main.c        ****             else if(p0_7_LDR_Bottom_Read()==0)
 131              		.loc 1 88 0
 132 0088 FFF7FEFF 		bl	p0_7_LDR_Bottom_Read
 133              	.LVL10:
 134 008c 18B9     		cbnz	r0, .L13
  89:main.c        ****             {
  90:main.c        ****                 mode_of_receiver= go_down;
 135              		.loc 1 90 0
 136 008e 0122     		movs	r2, #1
 137 0090 204B     		ldr	r3, .L17
 138 0092 5A70     		strb	r2, [r3, #1]
ARM GAS  C:\Users\monis\AppData\Local\Temp\ccuizwHE.s 			page 5


 139 0094 08BD     		pop	{r3, pc}
 140              	.L13:
  91:main.c        ****             }
  92:main.c        ****             
  93:main.c        ****             else if(potentiometer_value >= 250)
 141              		.loc 1 93 0
 142 0096 1F4B     		ldr	r3, .L17
 143 0098 1B78     		ldrb	r3, [r3]	@ zero_extendqisi2
 144 009a F92B     		cmp	r3, #249
 145 009c 38D9     		bls	.L1
  94:main.c        ****             {
  95:main.c        ****                 mode_of_receiver= stop_at_top;
 146              		.loc 1 95 0
 147 009e 0422     		movs	r2, #4
 148 00a0 1C4B     		ldr	r3, .L17
 149 00a2 5A70     		strb	r2, [r3, #1]
 150 00a4 08BD     		pop	{r3, pc}
 151              	.L7:
  96:main.c        ****             }
  97:main.c        ****             break;
  98:main.c        ****         }
  99:main.c        ****         case go_down_pause:
 100:main.c        ****         {
 101:main.c        ****             p3_0_Write(0);
 152              		.loc 1 101 0
 153 00a6 0020     		movs	r0, #0
 154 00a8 FFF7FEFF 		bl	p3_0_Write
 155              	.LVL11:
 102:main.c        ****             p3_1_Write(0);
 156              		.loc 1 102 0
 157 00ac 0020     		movs	r0, #0
 158 00ae FFF7FEFF 		bl	p3_1_Write
 159              	.LVL12:
 103:main.c        ****             if(p0_7_LDR_Bottom_Read()==0)
 160              		.loc 1 103 0
 161 00b2 FFF7FEFF 		bl	p0_7_LDR_Bottom_Read
 162              	.LVL13:
 163 00b6 18B9     		cbnz	r0, .L14
 104:main.c        ****             {
 105:main.c        ****                 mode_of_receiver= go_down;
 164              		.loc 1 105 0
 165 00b8 0122     		movs	r2, #1
 166 00ba 164B     		ldr	r3, .L17
 167 00bc 5A70     		strb	r2, [r3, #1]
 168 00be 08BD     		pop	{r3, pc}
 169              	.L14:
 106:main.c        ****             }
 107:main.c        ****             else if(p0_6_LDR_Top_Read()==0)
 170              		.loc 1 107 0
 171 00c0 FFF7FEFF 		bl	p0_6_LDR_Top_Read
 172              	.LVL14:
 173 00c4 18B9     		cbnz	r0, .L15
 108:main.c        ****             {
 109:main.c        ****                 mode_of_receiver= go_up;
 174              		.loc 1 109 0
 175 00c6 0022     		movs	r2, #0
 176 00c8 124B     		ldr	r3, .L17
ARM GAS  C:\Users\monis\AppData\Local\Temp\ccuizwHE.s 			page 6


 177 00ca 5A70     		strb	r2, [r3, #1]
 178 00cc 08BD     		pop	{r3, pc}
 179              	.L15:
 110:main.c        ****             }
 111:main.c        ****             else if(potentiometer_value <= 4)
 180              		.loc 1 111 0
 181 00ce 114B     		ldr	r3, .L17
 182 00d0 1B78     		ldrb	r3, [r3]	@ zero_extendqisi2
 183 00d2 042B     		cmp	r3, #4
 184 00d4 1CD8     		bhi	.L1
 112:main.c        ****             {
 113:main.c        ****                mode_of_receiver= stop_at_bottom;
 185              		.loc 1 113 0
 186 00d6 0522     		movs	r2, #5
 187 00d8 0E4B     		ldr	r3, .L17
 188 00da 5A70     		strb	r2, [r3, #1]
 189 00dc 08BD     		pop	{r3, pc}
 190              	.L8:
 114:main.c        ****             }
 115:main.c        ****             break;
 116:main.c        ****         }
 117:main.c        ****         case stop_at_top:
 118:main.c        ****         {
 119:main.c        ****             p3_0_Write(0);
 191              		.loc 1 119 0
 192 00de 0020     		movs	r0, #0
 193 00e0 FFF7FEFF 		bl	p3_0_Write
 194              	.LVL15:
 120:main.c        ****             p3_1_Write(0);
 195              		.loc 1 120 0
 196 00e4 0020     		movs	r0, #0
 197 00e6 FFF7FEFF 		bl	p3_1_Write
 198              	.LVL16:
 121:main.c        ****             if(p0_7_LDR_Bottom_Read()==0)
 199              		.loc 1 121 0
 200 00ea FFF7FEFF 		bl	p0_7_LDR_Bottom_Read
 201              	.LVL17:
 202 00ee 78B9     		cbnz	r0, .L1
 122:main.c        ****             {
 123:main.c        ****                 mode_of_receiver= go_down;
 203              		.loc 1 123 0
 204 00f0 0122     		movs	r2, #1
 205 00f2 084B     		ldr	r3, .L17
 206 00f4 5A70     		strb	r2, [r3, #1]
 207 00f6 08BD     		pop	{r3, pc}
 208              	.L9:
 124:main.c        ****             }
 125:main.c        ****             break;
 126:main.c        ****         }
 127:main.c        ****         case stop_at_bottom:
 128:main.c        ****         {
 129:main.c        ****             p3_0_Write(0);
 209              		.loc 1 129 0
 210 00f8 0020     		movs	r0, #0
 211 00fa FFF7FEFF 		bl	p3_0_Write
 212              	.LVL18:
 130:main.c        ****             p3_1_Write(0);
ARM GAS  C:\Users\monis\AppData\Local\Temp\ccuizwHE.s 			page 7


 213              		.loc 1 130 0
 214 00fe 0020     		movs	r0, #0
 215 0100 FFF7FEFF 		bl	p3_1_Write
 216              	.LVL19:
 131:main.c        ****             if(p0_6_LDR_Top_Read()==0)
 217              		.loc 1 131 0
 218 0104 FFF7FEFF 		bl	p0_6_LDR_Top_Read
 219              	.LVL20:
 220 0108 10B9     		cbnz	r0, .L1
 132:main.c        ****             {
 133:main.c        ****                 mode_of_receiver= go_up;
 221              		.loc 1 133 0
 222 010a 0022     		movs	r2, #0
 223 010c 014B     		ldr	r3, .L17
 224 010e 5A70     		strb	r2, [r3, #1]
 225              	.L1:
 226 0110 08BD     		pop	{r3, pc}
 227              	.L18:
 228 0112 00BF     		.align	2
 229              	.L17:
 230 0114 00000000 		.word	.LANCHOR0
 231              		.cfi_endproc
 232              	.LFE63:
 233              		.size	control_receiver, .-control_receiver
 234              		.section	.text.slow_step,"ax",%progbits
 235              		.align	2
 236              		.global	slow_step
 237              		.thumb
 238              		.thumb_func
 239              		.type	slow_step, %function
 240              	slow_step:
 241              	.LFB64:
 134:main.c        ****             }
 135:main.c        ****             break;
 136:main.c        ****         }
 137:main.c        ****     }
 138:main.c        **** }
 139:main.c        **** 
 140:main.c        **** void slow_step(void)
 141:main.c        **** {
 242              		.loc 1 141 0
 243              		.cfi_startproc
 244              		@ args = 0, pretend = 0, frame = 0
 245              		@ frame_needed = 0, uses_anonymous_args = 0
 246 0000 38B5     		push	{r3, r4, r5, lr}
 247              		.cfi_def_cfa_offset 16
 248              		.cfi_offset 3, -16
 249              		.cfi_offset 4, -12
 250              		.cfi_offset 5, -8
 251              		.cfi_offset 14, -4
 142:main.c        ****     //CyDelay(200);
 143:main.c        ****     CyDelay(100);
 252              		.loc 1 143 0
 253 0002 6420     		movs	r0, #100
 254 0004 FFF7FEFF 		bl	CyDelay
 255              	.LVL21:
 144:main.c        ****     static uint8 column=0,row=0;
ARM GAS  C:\Users\monis\AppData\Local\Temp\ccuizwHE.s 			page 8


 145:main.c        ****     if(flag==1)
 256              		.loc 1 145 0
 257 0008 194B     		ldr	r3, .L25
 258 000a 9B78     		ldrb	r3, [r3, #2]	@ zero_extendqisi2
 259 000c 5BB1     		cbz	r3, .L20
 146:main.c        ****     {
 147:main.c        ****         if(row==7)
 260              		.loc 1 147 0
 261 000e 184B     		ldr	r3, .L25
 262 0010 DB78     		ldrb	r3, [r3, #3]	@ zero_extendqisi2
 263 0012 072B     		cmp	r3, #7
 264 0014 03D1     		bne	.L21
 148:main.c        ****         {
 149:main.c        ****             row=0;
 265              		.loc 1 149 0
 266 0016 0022     		movs	r2, #0
 267 0018 154B     		ldr	r3, .L25
 268 001a DA70     		strb	r2, [r3, #3]
 269 001c 0DE0     		b	.L22
 270              	.L21:
 150:main.c        ****         }
 151:main.c        ****         else
 152:main.c        ****         {
 153:main.c        ****             row++;
 271              		.loc 1 153 0
 272 001e 0133     		adds	r3, r3, #1
 273 0020 134A     		ldr	r2, .L25
 274 0022 D370     		strb	r3, [r2, #3]
 275 0024 09E0     		b	.L22
 276              	.L20:
 154:main.c        ****         }
 155:main.c        ****     }
 156:main.c        ****     else
 157:main.c        ****     {
 158:main.c        ****         if(row==0)
 277              		.loc 1 158 0
 278 0026 124B     		ldr	r3, .L25
 279 0028 DB78     		ldrb	r3, [r3, #3]	@ zero_extendqisi2
 280 002a 1BB9     		cbnz	r3, .L23
 159:main.c        ****         {
 160:main.c        ****             row=7;
 281              		.loc 1 160 0
 282 002c 0722     		movs	r2, #7
 283 002e 104B     		ldr	r3, .L25
 284 0030 DA70     		strb	r2, [r3, #3]
 285 0032 02E0     		b	.L22
 286              	.L23:
 161:main.c        ****         }
 162:main.c        ****         else
 163:main.c        ****         {
 164:main.c        ****             row--;
 287              		.loc 1 164 0
 288 0034 013B     		subs	r3, r3, #1
 289 0036 0E4A     		ldr	r2, .L25
 290 0038 D370     		strb	r3, [r2, #3]
 291              	.L22:
 165:main.c        ****         }
ARM GAS  C:\Users\monis\AppData\Local\Temp\ccuizwHE.s 			page 9


 166:main.c        ****     }
 167:main.c        ****     p3_3_Blue_Write(counter_clockwise_table[row][0]);
 292              		.loc 1 167 0
 293 003a 0E4C     		ldr	r4, .L25+4
 294 003c 0C4D     		ldr	r5, .L25
 295 003e EB78     		ldrb	r3, [r5, #3]	@ zero_extendqisi2
 296 0040 14F82300 		ldrb	r0, [r4, r3, lsl #2]	@ zero_extendqisi2
 297 0044 FFF7FEFF 		bl	p3_3_Blue_Write
 298              	.LVL22:
 168:main.c        ****     p3_4_Yellow_Write(counter_clockwise_table[row][1]);
 299              		.loc 1 168 0
 300 0048 EB78     		ldrb	r3, [r5, #3]	@ zero_extendqisi2
 301 004a 04EB8303 		add	r3, r4, r3, lsl #2
 302 004e 5878     		ldrb	r0, [r3, #1]	@ zero_extendqisi2
 303 0050 FFF7FEFF 		bl	p3_4_Yellow_Write
 304              	.LVL23:
 169:main.c        ****     p3_5_Orange_Write(counter_clockwise_table[row][2]);
 305              		.loc 1 169 0
 306 0054 EB78     		ldrb	r3, [r5, #3]	@ zero_extendqisi2
 307 0056 04EB8303 		add	r3, r4, r3, lsl #2
 308 005a 9878     		ldrb	r0, [r3, #2]	@ zero_extendqisi2
 309 005c FFF7FEFF 		bl	p3_5_Orange_Write
 310              	.LVL24:
 170:main.c        ****     p3_6_Pink_Write(counter_clockwise_table[row][3]);
 311              		.loc 1 170 0
 312 0060 EB78     		ldrb	r3, [r5, #3]	@ zero_extendqisi2
 313 0062 04EB8304 		add	r4, r4, r3, lsl #2
 314 0066 E078     		ldrb	r0, [r4, #3]	@ zero_extendqisi2
 315 0068 FFF7FEFF 		bl	p3_6_Pink_Write
 316              	.LVL25:
 317 006c 38BD     		pop	{r3, r4, r5, pc}
 318              	.L26:
 319 006e 00BF     		.align	2
 320              	.L25:
 321 0070 00000000 		.word	.LANCHOR0
 322 0074 00000000 		.word	.LANCHOR1
 323              		.cfi_endproc
 324              	.LFE64:
 325              		.size	slow_step, .-slow_step
 326              		.section	.text.step,"ax",%progbits
 327              		.align	2
 328              		.global	step
 329              		.thumb
 330              		.thumb_func
 331              		.type	step, %function
 332              	step:
 333              	.LFB65:
 171:main.c        ****     return;
 172:main.c        **** }
 173:main.c        **** 
 174:main.c        **** void step(void)
 175:main.c        **** {
 334              		.loc 1 175 0
 335              		.cfi_startproc
 336              		@ args = 0, pretend = 0, frame = 0
 337              		@ frame_needed = 0, uses_anonymous_args = 0
 338 0000 38B5     		push	{r3, r4, r5, lr}
ARM GAS  C:\Users\monis\AppData\Local\Temp\ccuizwHE.s 			page 10


 339              		.cfi_def_cfa_offset 16
 340              		.cfi_offset 3, -16
 341              		.cfi_offset 4, -12
 342              		.cfi_offset 5, -8
 343              		.cfi_offset 14, -4
 176:main.c        ****     //CyDelay(2);
 177:main.c        ****     //CyDelayUs(1860);
 178:main.c        ****     CyDelayUs(800);
 344              		.loc 1 178 0
 345 0002 4FF44870 		mov	r0, #800
 346 0006 FFF7FEFF 		bl	CyDelayUs
 347              	.LVL26:
 179:main.c        ****     static uint8 column=0,row=0;
 180:main.c        ****     if(flag==1)
 348              		.loc 1 180 0
 349 000a 194B     		ldr	r3, .L33
 350 000c 9B78     		ldrb	r3, [r3, #2]	@ zero_extendqisi2
 351 000e 5BB1     		cbz	r3, .L28
 181:main.c        ****     {
 182:main.c        ****         if(row==7)
 352              		.loc 1 182 0
 353 0010 174B     		ldr	r3, .L33
 354 0012 1B79     		ldrb	r3, [r3, #4]	@ zero_extendqisi2
 355 0014 072B     		cmp	r3, #7
 356 0016 03D1     		bne	.L29
 183:main.c        ****         {
 184:main.c        ****             row=0;
 357              		.loc 1 184 0
 358 0018 0022     		movs	r2, #0
 359 001a 154B     		ldr	r3, .L33
 360 001c 1A71     		strb	r2, [r3, #4]
 361 001e 0DE0     		b	.L30
 362              	.L29:
 185:main.c        ****         }
 186:main.c        ****         else
 187:main.c        ****         {
 188:main.c        ****             row++;
 363              		.loc 1 188 0
 364 0020 0133     		adds	r3, r3, #1
 365 0022 134A     		ldr	r2, .L33
 366 0024 1371     		strb	r3, [r2, #4]
 367 0026 09E0     		b	.L30
 368              	.L28:
 189:main.c        ****         }
 190:main.c        ****     }
 191:main.c        ****     else
 192:main.c        ****     {
 193:main.c        ****         if(row==0)
 369              		.loc 1 193 0
 370 0028 114B     		ldr	r3, .L33
 371 002a 1B79     		ldrb	r3, [r3, #4]	@ zero_extendqisi2
 372 002c 1BB9     		cbnz	r3, .L31
 194:main.c        ****         {
 195:main.c        ****             row=7;
 373              		.loc 1 195 0
 374 002e 0722     		movs	r2, #7
 375 0030 0F4B     		ldr	r3, .L33
ARM GAS  C:\Users\monis\AppData\Local\Temp\ccuizwHE.s 			page 11


 376 0032 1A71     		strb	r2, [r3, #4]
 377 0034 02E0     		b	.L30
 378              	.L31:
 196:main.c        ****         }
 197:main.c        ****         else
 198:main.c        ****         {
 199:main.c        ****             row--;
 379              		.loc 1 199 0
 380 0036 013B     		subs	r3, r3, #1
 381 0038 0D4A     		ldr	r2, .L33
 382 003a 1371     		strb	r3, [r2, #4]
 383              	.L30:
 200:main.c        ****         }
 201:main.c        ****     }
 202:main.c        ****     p3_3_Blue_Write(counter_clockwise_table[row][0]);
 384              		.loc 1 202 0
 385 003c 0D4C     		ldr	r4, .L33+4
 386 003e 0C4D     		ldr	r5, .L33
 387 0040 2B79     		ldrb	r3, [r5, #4]	@ zero_extendqisi2
 388 0042 14F82300 		ldrb	r0, [r4, r3, lsl #2]	@ zero_extendqisi2
 389 0046 FFF7FEFF 		bl	p3_3_Blue_Write
 390              	.LVL27:
 203:main.c        ****     p3_4_Yellow_Write(counter_clockwise_table[row][1]);
 391              		.loc 1 203 0
 392 004a 2B79     		ldrb	r3, [r5, #4]	@ zero_extendqisi2
 393 004c 04EB8303 		add	r3, r4, r3, lsl #2
 394 0050 5878     		ldrb	r0, [r3, #1]	@ zero_extendqisi2
 395 0052 FFF7FEFF 		bl	p3_4_Yellow_Write
 396              	.LVL28:
 204:main.c        ****     p3_5_Orange_Write(counter_clockwise_table[row][2]);
 397              		.loc 1 204 0
 398 0056 2B79     		ldrb	r3, [r5, #4]	@ zero_extendqisi2
 399 0058 04EB8303 		add	r3, r4, r3, lsl #2
 400 005c 9878     		ldrb	r0, [r3, #2]	@ zero_extendqisi2
 401 005e FFF7FEFF 		bl	p3_5_Orange_Write
 402              	.LVL29:
 205:main.c        ****     p3_6_Pink_Write(counter_clockwise_table[row][3]);
 403              		.loc 1 205 0
 404 0062 2B79     		ldrb	r3, [r5, #4]	@ zero_extendqisi2
 405 0064 04EB8304 		add	r4, r4, r3, lsl #2
 406 0068 E078     		ldrb	r0, [r4, #3]	@ zero_extendqisi2
 407 006a FFF7FEFF 		bl	p3_6_Pink_Write
 408              	.LVL30:
 409 006e 38BD     		pop	{r3, r4, r5, pc}
 410              	.L34:
 411              		.align	2
 412              	.L33:
 413 0070 00000000 		.word	.LANCHOR0
 414 0074 00000000 		.word	.LANCHOR1
 415              		.cfi_endproc
 416              	.LFE65:
 417              		.size	step, .-step
 418              		.section	.text.LCD_init,"ax",%progbits
 419              		.align	2
 420              		.global	LCD_init
 421              		.thumb
 422              		.thumb_func
ARM GAS  C:\Users\monis\AppData\Local\Temp\ccuizwHE.s 			page 12


 423              		.type	LCD_init, %function
 424              	LCD_init:
 425              	.LFB66:
 206:main.c        ****     return;
 207:main.c        **** }
 208:main.c        **** 
 209:main.c        **** void LCD_init(void)
 210:main.c        **** {
 426              		.loc 1 210 0
 427              		.cfi_startproc
 428              		@ args = 0, pretend = 0, frame = 0
 429              		@ frame_needed = 0, uses_anonymous_args = 0
 430 0000 38B5     		push	{r3, r4, r5, lr}
 431              		.cfi_def_cfa_offset 16
 432              		.cfi_offset 3, -16
 433              		.cfi_offset 4, -12
 434              		.cfi_offset 5, -8
 435              		.cfi_offset 14, -4
 211:main.c        ****     static int32 degree=0;
 212:main.c        ****     LCD_Char_1_Position(0,0);
 436              		.loc 1 212 0
 437 0002 0021     		movs	r1, #0
 438 0004 0846     		mov	r0, r1
 439 0006 FFF7FEFF 		bl	LCD_Char_1_Position
 440              	.LVL31:
 213:main.c        ****     LCD_Char_1_PrintString("                ");
 441              		.loc 1 213 0
 442 000a 1F4D     		ldr	r5, .L38
 443 000c 2846     		mov	r0, r5
 444 000e FFF7FEFF 		bl	LCD_Char_1_PrintString
 445              	.LVL32:
 214:main.c        ****     LCD_Char_1_Position(0,0);
 446              		.loc 1 214 0
 447 0012 0021     		movs	r1, #0
 448 0014 0846     		mov	r0, r1
 449 0016 FFF7FEFF 		bl	LCD_Char_1_Position
 450              	.LVL33:
 215:main.c        ****     LCD_Char_1_PrintString("KYLE");
 451              		.loc 1 215 0
 452 001a 1C48     		ldr	r0, .L38+4
 453 001c FFF7FEFF 		bl	LCD_Char_1_PrintString
 454              	.LVL34:
 216:main.c        ****     LCD_Char_1_Position(0,5);
 455              		.loc 1 216 0
 456 0020 0521     		movs	r1, #5
 457 0022 0020     		movs	r0, #0
 458 0024 FFF7FEFF 		bl	LCD_Char_1_Position
 459              	.LVL35:
 217:main.c        ****     LCD_Char_1_PrintString("&");
 460              		.loc 1 217 0
 461 0028 1948     		ldr	r0, .L38+8
 462 002a FFF7FEFF 		bl	LCD_Char_1_PrintString
 463              	.LVL36:
 218:main.c        ****     LCD_Char_1_Position(0,7);
 464              		.loc 1 218 0
 465 002e 0721     		movs	r1, #7
 466 0030 0020     		movs	r0, #0
ARM GAS  C:\Users\monis\AppData\Local\Temp\ccuizwHE.s 			page 13


 467 0032 FFF7FEFF 		bl	LCD_Char_1_Position
 468              	.LVL37:
 219:main.c        ****     LCD_Char_1_PrintString("MONISH");
 469              		.loc 1 219 0
 470 0036 1748     		ldr	r0, .L38+12
 471 0038 FFF7FEFF 		bl	LCD_Char_1_PrintString
 472              	.LVL38:
 220:main.c        ****     LCD_Char_1_Position(1,0);
 473              		.loc 1 220 0
 474 003c 0021     		movs	r1, #0
 475 003e 0120     		movs	r0, #1
 476 0040 FFF7FEFF 		bl	LCD_Char_1_Position
 477              	.LVL39:
 221:main.c        ****     degree=stepper_pos/2;
 478              		.loc 1 221 0
 479 0044 144C     		ldr	r4, .L38+16
 480 0046 A368     		ldr	r3, [r4, #8]
 481 0048 03EBD373 		add	r3, r3, r3, lsr #31
 482 004c 5B10     		asrs	r3, r3, #1
 483 004e E360     		str	r3, [r4, #12]
 222:main.c        ****     LCD_Char_1_PrintString("                ");
 484              		.loc 1 222 0
 485 0050 2846     		mov	r0, r5
 486 0052 FFF7FEFF 		bl	LCD_Char_1_PrintString
 487              	.LVL40:
 223:main.c        ****     LCD_Char_1_Position(1,0);
 488              		.loc 1 223 0
 489 0056 0021     		movs	r1, #0
 490 0058 0120     		movs	r0, #1
 491 005a FFF7FEFF 		bl	LCD_Char_1_Position
 492              	.LVL41:
 224:main.c        ****     LCD_Char_1_PrintString("degree=");
 493              		.loc 1 224 0
 494 005e 0F48     		ldr	r0, .L38+20
 495 0060 FFF7FEFF 		bl	LCD_Char_1_PrintString
 496              	.LVL42:
 225:main.c        ****     LCD_Char_1_Position(1,7);
 497              		.loc 1 225 0
 498 0064 0721     		movs	r1, #7
 499 0066 0120     		movs	r0, #1
 500 0068 FFF7FEFF 		bl	LCD_Char_1_Position
 501              	.LVL43:
 226:main.c        ****     if(degree<0)
 502              		.loc 1 226 0
 503 006c E368     		ldr	r3, [r4, #12]
 504 006e 002B     		cmp	r3, #0
 505 0070 04DA     		bge	.L36
 227:main.c        ****     {
 228:main.c        ****         degree = -1*degree;
 506              		.loc 1 228 0
 507 0072 5B42     		negs	r3, r3
 508 0074 E360     		str	r3, [r4, #12]
 229:main.c        ****         LCD_Char_1_PrintString("-");
 509              		.loc 1 229 0
 510 0076 0A48     		ldr	r0, .L38+24
 511 0078 FFF7FEFF 		bl	LCD_Char_1_PrintString
 512              	.LVL44:
ARM GAS  C:\Users\monis\AppData\Local\Temp\ccuizwHE.s 			page 14


 513              	.L36:
 230:main.c        ****     }
 231:main.c        ****     LCD_Char_1_PrintU32Number(degree);
 514              		.loc 1 231 0
 515 007c 064B     		ldr	r3, .L38+16
 516 007e D868     		ldr	r0, [r3, #12]
 517 0080 FFF7FEFF 		bl	LCD_Char_1_PrintU32Number
 518              	.LVL45:
 519 0084 38BD     		pop	{r3, r4, r5, pc}
 520              	.L39:
 521 0086 00BF     		.align	2
 522              	.L38:
 523 0088 00000000 		.word	.LC0
 524 008c 14000000 		.word	.LC1
 525 0090 1C000000 		.word	.LC2
 526 0094 20000000 		.word	.LC3
 527 0098 00000000 		.word	.LANCHOR0
 528 009c 28000000 		.word	.LC4
 529 00a0 30000000 		.word	.LC5
 530              		.cfi_endproc
 531              	.LFE66:
 532              		.size	LCD_init, .-LCD_init
 533              		.section	.text.LCD,"ax",%progbits
 534              		.align	2
 535              		.global	LCD
 536              		.thumb
 537              		.thumb_func
 538              		.type	LCD, %function
 539              	LCD:
 540              	.LFB67:
 232:main.c        **** }
 233:main.c        **** 
 234:main.c        **** void LCD() // LCD Display
 235:main.c        **** {          
 541              		.loc 1 235 0
 542              		.cfi_startproc
 543              		@ args = 0, pretend = 0, frame = 0
 544              		@ frame_needed = 0, uses_anonymous_args = 0
 545 0000 38B5     		push	{r3, r4, r5, lr}
 546              		.cfi_def_cfa_offset 16
 547              		.cfi_offset 3, -16
 548              		.cfi_offset 4, -12
 549              		.cfi_offset 5, -8
 550              		.cfi_offset 14, -4
 236:main.c        ****     LCD_Char_1_Position(0,0);
 551              		.loc 1 236 0
 552 0002 0021     		movs	r1, #0
 553 0004 0846     		mov	r0, r1
 554 0006 FFF7FEFF 		bl	LCD_Char_1_Position
 555              	.LVL46:
 237:main.c        ****     LCD_Char_1_PrintString("                ");
 556              		.loc 1 237 0
 557 000a 1C4D     		ldr	r5, .L42
 558 000c 2846     		mov	r0, r5
 559 000e FFF7FEFF 		bl	LCD_Char_1_PrintString
 560              	.LVL47:
 238:main.c        ****     LCD_Char_1_Position(0,0);
ARM GAS  C:\Users\monis\AppData\Local\Temp\ccuizwHE.s 			page 15


 561              		.loc 1 238 0
 562 0012 0021     		movs	r1, #0
 563 0014 0846     		mov	r0, r1
 564 0016 FFF7FEFF 		bl	LCD_Char_1_Position
 565              	.LVL48:
 239:main.c        ****     LCD_Char_1_PrintString("pot=");
 566              		.loc 1 239 0
 567 001a 1948     		ldr	r0, .L42+4
 568 001c FFF7FEFF 		bl	LCD_Char_1_PrintString
 569              	.LVL49:
 240:main.c        ****     LCD_Char_1_Position(0,4);
 570              		.loc 1 240 0
 571 0020 0421     		movs	r1, #4
 572 0022 0020     		movs	r0, #0
 573 0024 FFF7FEFF 		bl	LCD_Char_1_Position
 574              	.LVL50:
 241:main.c        ****     LCD_Char_1_PrintU32Number(potentiometer_value);
 575              		.loc 1 241 0
 576 0028 164C     		ldr	r4, .L42+8
 577 002a 2078     		ldrb	r0, [r4]	@ zero_extendqisi2
 578 002c FFF7FEFF 		bl	LCD_Char_1_PrintU32Number
 579              	.LVL51:
 242:main.c        ****     LCD_Char_1_Position(0,8);
 580              		.loc 1 242 0
 581 0030 0821     		movs	r1, #8
 582 0032 0020     		movs	r0, #0
 583 0034 FFF7FEFF 		bl	LCD_Char_1_Position
 584              	.LVL52:
 243:main.c        ****     LCD_Char_1_PrintString("z=");
 585              		.loc 1 243 0
 586 0038 1348     		ldr	r0, .L42+12
 587 003a FFF7FEFF 		bl	LCD_Char_1_PrintString
 588              	.LVL53:
 244:main.c        ****     LCD_Char_1_Position(0,10);
 589              		.loc 1 244 0
 590 003e 0A21     		movs	r1, #10
 591 0040 0020     		movs	r0, #0
 592 0042 FFF7FEFF 		bl	LCD_Char_1_Position
 593              	.LVL54:
 245:main.c        ****     z_axis_acceleration = ADC_SAR_1_GetResult16(); 
 594              		.loc 1 245 0
 595 0046 FFF7FEFF 		bl	ADC_SAR_1_GetResult16
 596              	.LVL55:
 597 004a 2082     		strh	r0, [r4, #16]	@ movhi
 246:main.c        ****     LCD_Char_1_PrintU32Number(z_axis_acceleration); 
 598              		.loc 1 246 0
 599 004c FFF7FEFF 		bl	LCD_Char_1_PrintU32Number
 600              	.LVL56:
 247:main.c        ****     LCD_Char_1_Position(1,0);
 601              		.loc 1 247 0
 602 0050 0021     		movs	r1, #0
 603 0052 0120     		movs	r0, #1
 604 0054 FFF7FEFF 		bl	LCD_Char_1_Position
 605              	.LVL57:
 248:main.c        ****     LCD_Char_1_PrintString("                ");
 606              		.loc 1 248 0
 607 0058 2846     		mov	r0, r5
ARM GAS  C:\Users\monis\AppData\Local\Temp\ccuizwHE.s 			page 16


 608 005a FFF7FEFF 		bl	LCD_Char_1_PrintString
 609              	.LVL58:
 249:main.c        ****     LCD_Char_1_Position(1,0);
 610              		.loc 1 249 0
 611 005e 0021     		movs	r1, #0
 612 0060 0120     		movs	r0, #1
 613 0062 FFF7FEFF 		bl	LCD_Char_1_Position
 614              	.LVL59:
 250:main.c        ****     LCD_Char_1_PrintString("case:");
 615              		.loc 1 250 0
 616 0066 0948     		ldr	r0, .L42+16
 617 0068 FFF7FEFF 		bl	LCD_Char_1_PrintString
 618              	.LVL60:
 251:main.c        ****     LCD_Char_1_Position(1,5);
 619              		.loc 1 251 0
 620 006c 0521     		movs	r1, #5
 621 006e 0120     		movs	r0, #1
 622 0070 FFF7FEFF 		bl	LCD_Char_1_Position
 623              	.LVL61:
 252:main.c        ****     LCD_Char_1_PrintU32Number(mode_of_receiver);
 624              		.loc 1 252 0
 625 0074 6078     		ldrb	r0, [r4, #1]	@ zero_extendqisi2
 626 0076 FFF7FEFF 		bl	LCD_Char_1_PrintU32Number
 627              	.LVL62:
 628 007a 38BD     		pop	{r3, r4, r5, pc}
 629              	.L43:
 630              		.align	2
 631              	.L42:
 632 007c 00000000 		.word	.LC0
 633 0080 34000000 		.word	.LC6
 634 0084 00000000 		.word	.LANCHOR0
 635 0088 3C000000 		.word	.LC7
 636 008c 40000000 		.word	.LC8
 637              		.cfi_endproc
 638              	.LFE67:
 639              		.size	LCD, .-LCD
 640              		.section	.text.align_axis,"ax",%progbits
 641              		.align	2
 642              		.global	align_axis
 643              		.thumb
 644              		.thumb_func
 645              		.type	align_axis, %function
 646              	align_axis:
 647              	.LFB68:
 253:main.c        ****     return;
 254:main.c        **** }
 255:main.c        **** 
 256:main.c        **** void align_axis(void)
 257:main.c        **** {
 648              		.loc 1 257 0
 649              		.cfi_startproc
 650              		@ args = 0, pretend = 0, frame = 0
 651              		@ frame_needed = 0, uses_anonymous_args = 0
 652 0000 10B5     		push	{r4, lr}
 653              		.cfi_def_cfa_offset 8
 654              		.cfi_offset 4, -8
 655              		.cfi_offset 14, -4
ARM GAS  C:\Users\monis\AppData\Local\Temp\ccuizwHE.s 			page 17


 258:main.c        ****     z_axis_acceleration = ADC_SAR_1_GetResult16();  
 656              		.loc 1 258 0
 657 0002 FFF7FEFF 		bl	ADC_SAR_1_GetResult16
 658              	.LVL63:
 659 0006 0D4B     		ldr	r3, .L49
 660 0008 1882     		strh	r0, [r3, #16]	@ movhi
 259:main.c        ****     static uint16 loop;
 260:main.c        ****     while(z_axis_acceleration!=3807)
 661              		.loc 1 260 0
 662 000a 0FE0     		b	.L46
 663              	.L47:
 261:main.c        ****     {
 262:main.c        ****         slow_step();
 664              		.loc 1 262 0
 665 000c FFF7FEFF 		bl	slow_step
 666              	.LVL64:
 263:main.c        ****         loop++;
 667              		.loc 1 263 0
 668 0010 0A4C     		ldr	r4, .L49
 669 0012 638A     		ldrh	r3, [r4, #18]
 670 0014 0133     		adds	r3, r3, #1
 671 0016 6382     		strh	r3, [r4, #18]	@ movhi
 264:main.c        ****         z_axis_acceleration = ADC_SAR_1_GetResult16();
 672              		.loc 1 264 0
 673 0018 FFF7FEFF 		bl	ADC_SAR_1_GetResult16
 674              	.LVL65:
 675 001c 2082     		strh	r0, [r4, #16]	@ movhi
 265:main.c        ****         if (loop == 100)
 676              		.loc 1 265 0
 677 001e 638A     		ldrh	r3, [r4, #18]
 678 0020 642B     		cmp	r3, #100
 679 0022 03D1     		bne	.L46
 266:main.c        ****         {
 267:main.c        ****             loop=0;
 680              		.loc 1 267 0
 681 0024 0022     		movs	r2, #0
 682 0026 6282     		strh	r2, [r4, #18]	@ movhi
 268:main.c        ****             LCD();
 683              		.loc 1 268 0
 684 0028 FFF7FEFF 		bl	LCD
 685              	.LVL66:
 686              	.L46:
 260:main.c        ****     {
 687              		.loc 1 260 0
 688 002c 034B     		ldr	r3, .L49
 689 002e B3F91020 		ldrsh	r2, [r3, #16]
 690 0032 40F6DF63 		movw	r3, #3807
 691 0036 9A42     		cmp	r2, r3
 692 0038 E8D1     		bne	.L47
 269:main.c        ****         }
 270:main.c        ****     }
 271:main.c        ****     return;
 272:main.c        **** }
 693              		.loc 1 272 0
 694 003a 10BD     		pop	{r4, pc}
 695              	.L50:
 696              		.align	2
ARM GAS  C:\Users\monis\AppData\Local\Temp\ccuizwHE.s 			page 18


 697              	.L49:
 698 003c 00000000 		.word	.LANCHOR0
 699              		.cfi_endproc
 700              	.LFE68:
 701              		.size	align_axis, .-align_axis
 702              		.section	.text.init_stepper,"ax",%progbits
 703              		.align	2
 704              		.global	init_stepper
 705              		.thumb
 706              		.thumb_func
 707              		.type	init_stepper, %function
 708              	init_stepper:
 709              	.LFB69:
 273:main.c        **** 
 274:main.c        **** void init_stepper(void)
 275:main.c        **** {
 710              		.loc 1 275 0
 711              		.cfi_startproc
 712              		@ args = 0, pretend = 0, frame = 0
 713              		@ frame_needed = 0, uses_anonymous_args = 0
 714 0000 38B5     		push	{r3, r4, r5, lr}
 715              		.cfi_def_cfa_offset 16
 716              		.cfi_offset 3, -16
 717              		.cfi_offset 4, -12
 718              		.cfi_offset 5, -8
 719              		.cfi_offset 14, -4
 720              	.LVL67:
 276:main.c        ****     uint16 i=0;
 277:main.c        ****     int16 loop = 0;
 278:main.c        ****     step_count = 200;
 721              		.loc 1 278 0
 722 0002 C822     		movs	r2, #200
 723 0004 2D4B     		ldr	r3, .L62
 724 0006 1A80     		strh	r2, [r3]	@ movhi
 277:main.c        ****     step_count = 200;
 725              		.loc 1 277 0
 726 0008 0024     		movs	r4, #0
 279:main.c        ****     for(i=0;i<step_count;i++)
 727              		.loc 1 279 0
 728 000a 2546     		mov	r5, r4
 729 000c 0EE0     		b	.L52
 730              	.LVL68:
 731              	.L54:
 280:main.c        ****     {
 281:main.c        ****         loop++;
 732              		.loc 1 281 0
 733 000e 0134     		adds	r4, r4, #1
 734              	.LVL69:
 735 0010 24B2     		sxth	r4, r4
 736              	.LVL70:
 282:main.c        ****         slow_step();
 737              		.loc 1 282 0
 738 0012 FFF7FEFF 		bl	slow_step
 739              	.LVL71:
 283:main.c        ****         if (loop == 10)
 740              		.loc 1 283 0
 741 0016 0A2C     		cmp	r4, #10
ARM GAS  C:\Users\monis\AppData\Local\Temp\ccuizwHE.s 			page 19


 742 0018 06D1     		bne	.L53
 284:main.c        ****         {
 285:main.c        ****             stepper_pos+=3;
 743              		.loc 1 285 0
 744 001a 294A     		ldr	r2, .L62+4
 745 001c 9368     		ldr	r3, [r2, #8]
 746 001e 0333     		adds	r3, r3, #3
 747 0020 9360     		str	r3, [r2, #8]
 286:main.c        ****             LCD_init();
 748              		.loc 1 286 0
 749 0022 FFF7FEFF 		bl	LCD_init
 750              	.LVL72:
 287:main.c        ****             loop=0;
 751              		.loc 1 287 0
 752 0026 0024     		movs	r4, #0
 753              	.LVL73:
 754              	.L53:
 279:main.c        ****     {
 755              		.loc 1 279 0 discriminator 2
 756 0028 0135     		adds	r5, r5, #1
 757              	.LVL74:
 758 002a ADB2     		uxth	r5, r5
 759              	.LVL75:
 760              	.L52:
 279:main.c        ****     {
 761              		.loc 1 279 0 is_stmt 0 discriminator 1
 762 002c 234B     		ldr	r3, .L62
 763 002e 1B88     		ldrh	r3, [r3]
 764 0030 9D42     		cmp	r5, r3
 765 0032 ECD3     		bcc	.L54
 288:main.c        ****         }
 289:main.c        ****     }
 290:main.c        ****     flag=!flag;
 766              		.loc 1 290 0 is_stmt 1
 767 0034 224A     		ldr	r2, .L62+4
 768 0036 9378     		ldrb	r3, [r2, #2]	@ zero_extendqisi2
 769 0038 83F00103 		eor	r3, r3, #1
 770 003c 9370     		strb	r3, [r2, #2]
 291:main.c        ****     step_count = 400;
 771              		.loc 1 291 0
 772 003e 4FF4C872 		mov	r2, #400
 773 0042 1E4B     		ldr	r3, .L62
 774 0044 1A80     		strh	r2, [r3]	@ movhi
 292:main.c        ****     CyDelay(1000);
 775              		.loc 1 292 0
 776 0046 4FF47A70 		mov	r0, #1000
 777 004a FFF7FEFF 		bl	CyDelay
 778              	.LVL76:
 293:main.c        ****     for(i=0;i<step_count;i++)
 779              		.loc 1 293 0
 780 004e 0025     		movs	r5, #0
 781 0050 0EE0     		b	.L55
 782              	.LVL77:
 783              	.L57:
 294:main.c        ****     {
 295:main.c        ****         loop++;
 784              		.loc 1 295 0
ARM GAS  C:\Users\monis\AppData\Local\Temp\ccuizwHE.s 			page 20


 785 0052 0134     		adds	r4, r4, #1
 786              	.LVL78:
 787 0054 24B2     		sxth	r4, r4
 788              	.LVL79:
 296:main.c        ****         slow_step();
 789              		.loc 1 296 0
 790 0056 FFF7FEFF 		bl	slow_step
 791              	.LVL80:
 297:main.c        ****         if (loop == 10)
 792              		.loc 1 297 0
 793 005a 0A2C     		cmp	r4, #10
 794 005c 06D1     		bne	.L56
 298:main.c        ****         {
 299:main.c        ****             stepper_pos-=3;
 795              		.loc 1 299 0
 796 005e 184A     		ldr	r2, .L62+4
 797 0060 9368     		ldr	r3, [r2, #8]
 798 0062 033B     		subs	r3, r3, #3
 799 0064 9360     		str	r3, [r2, #8]
 300:main.c        ****             LCD_init();
 800              		.loc 1 300 0
 801 0066 FFF7FEFF 		bl	LCD_init
 802              	.LVL81:
 301:main.c        ****             loop=0;
 803              		.loc 1 301 0
 804 006a 0024     		movs	r4, #0
 805              	.LVL82:
 806              	.L56:
 293:main.c        ****     {
 807              		.loc 1 293 0 discriminator 2
 808 006c 0135     		adds	r5, r5, #1
 809              	.LVL83:
 810 006e ADB2     		uxth	r5, r5
 811              	.LVL84:
 812              	.L55:
 293:main.c        ****     {
 813              		.loc 1 293 0 is_stmt 0 discriminator 1
 814 0070 124B     		ldr	r3, .L62
 815 0072 1B88     		ldrh	r3, [r3]
 816 0074 9D42     		cmp	r5, r3
 817 0076 ECD3     		bcc	.L57
 302:main.c        ****         }
 303:main.c        ****     }
 304:main.c        ****     flag=!flag;
 818              		.loc 1 304 0 is_stmt 1
 819 0078 114A     		ldr	r2, .L62+4
 820 007a 9378     		ldrb	r3, [r2, #2]	@ zero_extendqisi2
 821 007c 83F00103 		eor	r3, r3, #1
 822 0080 9370     		strb	r3, [r2, #2]
 305:main.c        ****     step_count = 200;
 823              		.loc 1 305 0
 824 0082 C822     		movs	r2, #200
 825 0084 0D4B     		ldr	r3, .L62
 826 0086 1A80     		strh	r2, [r3]	@ movhi
 306:main.c        ****     CyDelay(1000);
 827              		.loc 1 306 0
 828 0088 4FF47A70 		mov	r0, #1000
ARM GAS  C:\Users\monis\AppData\Local\Temp\ccuizwHE.s 			page 21


 829 008c FFF7FEFF 		bl	CyDelay
 830              	.LVL85:
 307:main.c        ****     for(i=0;i<step_count;i++)
 831              		.loc 1 307 0
 832 0090 0025     		movs	r5, #0
 833 0092 0EE0     		b	.L58
 834              	.LVL86:
 835              	.L60:
 308:main.c        ****     {
 309:main.c        ****         loop++;
 836              		.loc 1 309 0
 837 0094 0134     		adds	r4, r4, #1
 838              	.LVL87:
 839 0096 24B2     		sxth	r4, r4
 840              	.LVL88:
 310:main.c        ****         slow_step();
 841              		.loc 1 310 0
 842 0098 FFF7FEFF 		bl	slow_step
 843              	.LVL89:
 311:main.c        ****         if (loop == 10)
 844              		.loc 1 311 0
 845 009c 0A2C     		cmp	r4, #10
 846 009e 06D1     		bne	.L59
 312:main.c        ****         {
 313:main.c        ****             stepper_pos+=3;
 847              		.loc 1 313 0
 848 00a0 074A     		ldr	r2, .L62+4
 849 00a2 9368     		ldr	r3, [r2, #8]
 850 00a4 0333     		adds	r3, r3, #3
 851 00a6 9360     		str	r3, [r2, #8]
 314:main.c        ****             LCD_init();
 852              		.loc 1 314 0
 853 00a8 FFF7FEFF 		bl	LCD_init
 854              	.LVL90:
 315:main.c        ****             loop=0;
 855              		.loc 1 315 0
 856 00ac 0024     		movs	r4, #0
 857              	.LVL91:
 858              	.L59:
 307:main.c        ****     {
 859              		.loc 1 307 0 discriminator 2
 860 00ae 0135     		adds	r5, r5, #1
 861              	.LVL92:
 862 00b0 ADB2     		uxth	r5, r5
 863              	.LVL93:
 864              	.L58:
 307:main.c        ****     {
 865              		.loc 1 307 0 is_stmt 0 discriminator 1
 866 00b2 024B     		ldr	r3, .L62
 867 00b4 1B88     		ldrh	r3, [r3]
 868 00b6 9D42     		cmp	r5, r3
 869 00b8 ECD3     		bcc	.L60
 316:main.c        ****         }
 317:main.c        ****     }
 318:main.c        **** }
 870              		.loc 1 318 0 is_stmt 1
 871 00ba 38BD     		pop	{r3, r4, r5, pc}
ARM GAS  C:\Users\monis\AppData\Local\Temp\ccuizwHE.s 			page 22


 872              	.LVL94:
 873              	.L63:
 874              		.align	2
 875              	.L62:
 876 00bc 00000000 		.word	step_count
 877 00c0 00000000 		.word	.LANCHOR0
 878              		.cfi_endproc
 879              	.LFE69:
 880              		.size	init_stepper, .-init_stepper
 881              		.section	.text.main,"ax",%progbits
 882              		.align	2
 883              		.global	main
 884              		.thumb
 885              		.thumb_func
 886              		.type	main, %function
 887              	main:
 888              	.LFB70:
 319:main.c        **** int main()
 320:main.c        **** {
 889              		.loc 1 320 0
 890              		.cfi_startproc
 891              		@ args = 0, pretend = 0, frame = 0
 892              		@ frame_needed = 0, uses_anonymous_args = 0
 893 0000 10B5     		push	{r4, lr}
 894              		.cfi_def_cfa_offset 8
 895              		.cfi_offset 4, -8
 896              		.cfi_offset 14, -4
 321:main.c        ****     CyGlobalIntEnable;
 897              		.loc 1 321 0
 898              		.syntax unified
 899              	@ 321 "main.c" 1
 900 0002 62B6     		CPSIE   i
 901              	@ 0 "" 2
 322:main.c        ****     LCD_Char_1_Start();
 902              		.loc 1 322 0
 903              		.thumb
 904              		.syntax unified
 905 0004 FFF7FEFF 		bl	LCD_Char_1_Start
 906              	.LVL95:
 323:main.c        ****     LCD_Char_1_ClearDisplay();    
 907              		.loc 1 323 0
 908 0008 0120     		movs	r0, #1
 909 000a FFF7FEFF 		bl	LCD_Char_1_WriteControl
 910              	.LVL96:
 324:main.c        ****     ADC_SAR_1_Start();
 911              		.loc 1 324 0
 912 000e FFF7FEFF 		bl	ADC_SAR_1_Start
 913              	.LVL97:
 325:main.c        ****     ADC_SAR_1_StartConvert();  
 914              		.loc 1 325 0
 915 0012 FFF7FEFF 		bl	ADC_SAR_1_StartConvert
 916              	.LVL98:
 326:main.c        ****     ADC_SAR_2_Start();
 917              		.loc 1 326 0
 918 0016 FFF7FEFF 		bl	ADC_SAR_2_Start
 919              	.LVL99:
 327:main.c        ****     ADC_SAR_2_StartConvert();
ARM GAS  C:\Users\monis\AppData\Local\Temp\ccuizwHE.s 			page 23


 920              		.loc 1 327 0
 921 001a FFF7FEFF 		bl	ADC_SAR_2_StartConvert
 922              	.LVL100:
 328:main.c        ****     //p3_0_Write(1);
 329:main.c        ****     //p3_1_Write(0);
 330:main.c        ****     uint32 loop=0;
 331:main.c        ****     /* while(1)
 332:main.c        ****     {
 333:main.c        ****         align_axis();
 334:main.c        ****         flag=!flag;
 335:main.c        ****     }*/
 336:main.c        ****     align_axis();
 923              		.loc 1 336 0
 924 001e FFF7FEFF 		bl	align_axis
 925              	.LVL101:
 337:main.c        ****     flag=!flag;
 926              		.loc 1 337 0
 927 0022 0F4A     		ldr	r2, .L69
 928 0024 9378     		ldrb	r3, [r2, #2]	@ zero_extendqisi2
 929 0026 83F00103 		eor	r3, r3, #1
 930 002a 9370     		strb	r3, [r2, #2]
 338:main.c        ****     //init_stepper();
 339:main.c        ****     step_count = 180;
 931              		.loc 1 339 0
 932 002c B422     		movs	r2, #180
 933 002e 0D4B     		ldr	r3, .L69+4
 934 0030 1A80     		strh	r2, [r3]	@ movhi
 330:main.c        ****     /* while(1)
 935              		.loc 1 330 0
 936 0032 0024     		movs	r4, #0
 937              	.LVL102:
 938              	.L67:
 340:main.c        ****     while(1)
 341:main.c        ****     {
 342:main.c        ****         loop++;
 939              		.loc 1 342 0
 940 0034 0134     		adds	r4, r4, #1
 941              	.LVL103:
 343:main.c        ****         if(loop==step_count)
 942              		.loc 1 343 0
 943 0036 0B4B     		ldr	r3, .L69+4
 944 0038 1B88     		ldrh	r3, [r3]
 945 003a 9C42     		cmp	r4, r3
 946 003c 07D1     		bne	.L65
 344:main.c        ****         {   
 345:main.c        ****            LCD();
 947              		.loc 1 345 0
 948 003e FFF7FEFF 		bl	LCD
 949              	.LVL104:
 346:main.c        ****            flag=!flag;
 950              		.loc 1 346 0
 951 0042 074A     		ldr	r2, .L69
 952 0044 9378     		ldrb	r3, [r2, #2]	@ zero_extendqisi2
 953 0046 83F00103 		eor	r3, r3, #1
 954 004a 9370     		strb	r3, [r2, #2]
 955              	.LVL105:
 347:main.c        ****            loop=0;
ARM GAS  C:\Users\monis\AppData\Local\Temp\ccuizwHE.s 			page 24


 956              		.loc 1 347 0
 957 004c 0024     		movs	r4, #0
 958              	.LVL106:
 959              	.L65:
 348:main.c        ****         }
 349:main.c        ****         step();
 960              		.loc 1 349 0
 961 004e FFF7FEFF 		bl	step
 962              	.LVL107:
 350:main.c        ****         
 351:main.c        ****         if (loop == 100)
 963              		.loc 1 351 0
 964 0052 642C     		cmp	r4, #100
 965 0054 01D1     		bne	.L66
 352:main.c        ****         {
 353:main.c        ****             //align_axis();
 354:main.c        ****             //loop=0;
 355:main.c        ****             LCD();
 966              		.loc 1 355 0
 967 0056 FFF7FEFF 		bl	LCD
 968              	.LVL108:
 969              	.L66:
 356:main.c        ****         }
 357:main.c        ****        // p3_0_Write(~p3_0_Read());
 358:main.c        ****        // p3_1_Write(~p3_1_Read());
 359:main.c        ****         //p3_0_Write(0);
 360:main.c        ****         //p3_1_Write(0);
 361:main.c        ****         control_receiver();
 970              		.loc 1 361 0
 971 005a FFF7FEFF 		bl	control_receiver
 972              	.LVL109:
 362:main.c        ****     }
 973              		.loc 1 362 0
 974 005e E9E7     		b	.L67
 975              	.L70:
 976              		.align	2
 977              	.L69:
 978 0060 00000000 		.word	.LANCHOR0
 979 0064 00000000 		.word	step_count
 980              		.cfi_endproc
 981              	.LFE70:
 982              		.size	main, .-main
 983              		.global	counter_clockwise_table
 984              		.global	mode_of_receiver
 985              		.global	potentiometer_value
 986              		.comm	step_count,2,2
 987              		.global	z_axis_acceleration
 988              		.global	delay_flag
 989              		.global	flag
 990              		.data
 991              		.align	2
 992              		.set	.LANCHOR1,. + 0
 993              		.type	counter_clockwise_table, %object
 994              		.size	counter_clockwise_table, 32
 995              	counter_clockwise_table:
 996 0000 01       		.byte	1
 997 0001 00       		.byte	0
ARM GAS  C:\Users\monis\AppData\Local\Temp\ccuizwHE.s 			page 25


 998 0002 00       		.byte	0
 999 0003 01       		.byte	1
 1000 0004 00       		.byte	0
 1001 0005 00       		.byte	0
 1002 0006 00       		.byte	0
 1003 0007 01       		.byte	1
 1004 0008 00       		.byte	0
 1005 0009 00       		.byte	0
 1006 000a 01       		.byte	1
 1007 000b 01       		.byte	1
 1008 000c 00       		.byte	0
 1009 000d 00       		.byte	0
 1010 000e 01       		.byte	1
 1011 000f 00       		.byte	0
 1012 0010 00       		.byte	0
 1013 0011 01       		.byte	1
 1014 0012 01       		.byte	1
 1015 0013 00       		.byte	0
 1016 0014 00       		.byte	0
 1017 0015 01       		.byte	1
 1018 0016 00       		.byte	0
 1019 0017 00       		.byte	0
 1020 0018 01       		.byte	1
 1021 0019 01       		.byte	1
 1022 001a 00       		.byte	0
 1023 001b 00       		.byte	0
 1024 001c 01       		.byte	1
 1025 001d 00       		.byte	0
 1026 001e 00       		.byte	0
 1027 001f 00       		.byte	0
 1028              		.type	delay_flag, %object
 1029              		.size	delay_flag, 1
 1030              	delay_flag:
 1031 0020 01       		.byte	1
 1032              		.section	.rodata.str1.4,"aMS",%progbits,1
 1033              		.align	2
 1034              	.LC0:
 1035 0000 20202020 		.ascii	"                \000"
 1035      20202020 
 1035      20202020 
 1035      20202020 
 1035      00
 1036 0011 000000   		.space	3
 1037              	.LC1:
 1038 0014 4B594C45 		.ascii	"KYLE\000"
 1038      00
 1039 0019 000000   		.space	3
 1040              	.LC2:
 1041 001c 2600     		.ascii	"&\000"
 1042 001e 0000     		.space	2
 1043              	.LC3:
 1044 0020 4D4F4E49 		.ascii	"MONISH\000"
 1044      534800
 1045 0027 00       		.space	1
 1046              	.LC4:
 1047 0028 64656772 		.ascii	"degree=\000"
 1047      65653D00 
ARM GAS  C:\Users\monis\AppData\Local\Temp\ccuizwHE.s 			page 26


 1048              	.LC5:
 1049 0030 2D00     		.ascii	"-\000"
 1050 0032 0000     		.space	2
 1051              	.LC6:
 1052 0034 706F743D 		.ascii	"pot=\000"
 1052      00
 1053 0039 000000   		.space	3
 1054              	.LC7:
 1055 003c 7A3D00   		.ascii	"z=\000"
 1056 003f 00       		.space	1
 1057              	.LC8:
 1058 0040 63617365 		.ascii	"case:\000"
 1058      3A00
 1059              		.bss
 1060              		.align	2
 1061              		.set	.LANCHOR0,. + 0
 1062              		.type	potentiometer_value, %object
 1063              		.size	potentiometer_value, 1
 1064              	potentiometer_value:
 1065 0000 00       		.space	1
 1066              		.type	mode_of_receiver, %object
 1067              		.size	mode_of_receiver, 1
 1068              	mode_of_receiver:
 1069 0001 00       		.space	1
 1070              		.type	flag, %object
 1071              		.size	flag, 1
 1072              	flag:
 1073 0002 00       		.space	1
 1074              		.type	row.5895, %object
 1075              		.size	row.5895, 1
 1076              	row.5895:
 1077 0003 00       		.space	1
 1078              		.type	row.5900, %object
 1079              		.size	row.5900, 1
 1080              	row.5900:
 1081 0004 00       		.space	1
 1082 0005 000000   		.space	3
 1083              		.type	stepper_pos, %object
 1084              		.size	stepper_pos, 4
 1085              	stepper_pos:
 1086 0008 00000000 		.space	4
 1087              		.type	degree.5904, %object
 1088              		.size	degree.5904, 4
 1089              	degree.5904:
 1090 000c 00000000 		.space	4
 1091              		.type	z_axis_acceleration, %object
 1092              		.size	z_axis_acceleration, 2
 1093              	z_axis_acceleration:
 1094 0010 0000     		.space	2
 1095              		.type	loop.5910, %object
 1096              		.size	loop.5910, 2
 1097              	loop.5910:
 1098 0012 0000     		.space	2
 1099              		.text
 1100              	.Letext0:
 1101              		.file 2 "c:\\program files (x86)\\cypress\\psoc creator\\4.1\\psoc creator\\import\\gnu\\arm\\5.4.
 1102              		.file 3 "c:\\program files (x86)\\cypress\\psoc creator\\4.1\\psoc creator\\import\\gnu\\arm\\5.4.
ARM GAS  C:\Users\monis\AppData\Local\Temp\ccuizwHE.s 			page 27


 1103              		.file 4 "Generated_Source\\PSoC5/cytypes.h"
 1104              		.file 5 "Generated_Source\\PSoC5/core_cm3.h"
 1105              		.file 6 "Generated_Source\\PSoC5/ADC_SAR_2.h"
 1106              		.file 7 "Generated_Source\\PSoC5/p3_0.h"
 1107              		.file 8 "Generated_Source\\PSoC5/p3_1.h"
 1108              		.file 9 "Generated_Source\\PSoC5/p0_7_LDR_Bottom.h"
 1109              		.file 10 "Generated_Source\\PSoC5/p0_6_LDR_Top.h"
 1110              		.file 11 "Generated_Source\\PSoC5/CyLib.h"
 1111              		.file 12 "Generated_Source\\PSoC5/p3_3_Blue.h"
 1112              		.file 13 "Generated_Source\\PSoC5/p3_4_Yellow.h"
 1113              		.file 14 "Generated_Source\\PSoC5/p3_5_Orange.h"
 1114              		.file 15 "Generated_Source\\PSoC5/p3_6_Pink.h"
 1115              		.file 16 "Generated_Source\\PSoC5/LCD_Char_1.h"
 1116              		.file 17 "Generated_Source\\PSoC5/ADC_SAR_1.h"