ARM GAS  C:\Users\monis\AppData\Local\Temp\ccX88cJk.s 			page 1


   1              		.syntax unified
   2              		.cpu cortex-m3
   3              		.fpu softvfp
   4              		.eabi_attribute 20, 1
   5              		.eabi_attribute 21, 1
   6              		.eabi_attribute 23, 3
   7              		.eabi_attribute 24, 1
   8              		.eabi_attribute 25, 1
   9              		.eabi_attribute 26, 1
  10              		.eabi_attribute 30, 1
  11              		.eabi_attribute 34, 1
  12              		.eabi_attribute 18, 4
  13              		.thumb
  14              		.syntax unified
  15              		.file	"main.c"
  16              		.text
  17              	.Ltext0:
  18              		.cfi_sections	.debug_frame
  19              		.global	__aeabi_i2d
  20              		.global	__aeabi_ddiv
  21              		.global	__aeabi_d2uiz
  22              		.global	__aeabi_dmul
  23              		.global	__aeabi_dadd
  24              		.section	.text.isr_2_Interrupt,"ax",%progbits
  25              		.align	2
  26              		.global	isr_2_Interrupt
  27              		.thumb
  28              		.thumb_func
  29              		.type	isr_2_Interrupt, %function
  30              	isr_2_Interrupt:
  31              	.LFB65:
  32              		.file 1 "main.c"
   1:main.c        **** /* ========================================
   2:main.c        ****  *
   3:main.c        ****  * ECEN 5053 -  Lab 4
   4:main.c        ****  * Nagraj and Monish Nene
   5:main.c        ****  *
   6:main.c        ****  * CONFIDENTIAL AND PROPRIETARY INFORMATION
   7:main.c        ****  * WHICH IS THE PROPERTY OF your company.
   8:main.c        ****  *
   9:main.c        ****  * ========================================
  10:main.c        **** */
  11:main.c        **** #include "project.h"
  12:main.c        **** 
  13:main.c        **** #define COUNTER_TICK_RATE 10000 // 10 kHz //Counter_2 count pin clock setting
  14:main.c        **** #define COUNTSPERREVOFGEAR 300 //64 COUNTER PER REV X 18.75 GEAR RATIO / 4 PULSES OF ENCODER 
  15:main.c        **** #define SECONDS 60
  16:main.c        **** #define DEMO 4
  17:main.c        **** #define resistance 2.7
  18:main.c        **** 
  19:main.c        ****  uint8 ADC_Count_Output = 0,source_voltage;
  20:main.c        ****     uint8 ADC_2_Count_Output=0,current=0,current_ref=100,ADC_2_Count_Output_1=0,ADC_2_Count_Output_
  21:main.c        ****     int16 quadcountnew = 0;
  22:main.c        ****     int16 quadcount = 0;
  23:main.c        ****     int8 quadcountprevious = 0,error_prev,error_new,error,ierror=0;    
  24:main.c        ****     int32 loop = 0;
  25:main.c        ****     uint16 time = 180,period;  //mS - time to toggle pin P0_0 - the duration of the for loop - from
ARM GAS  C:\Users\monis\AppData\Local\Temp\ccX88cJk.s 			page 2


  26:main.c        ****     int16 emfrpm = 0;
  27:main.c        ****     int32 speedref = 40,mode=1,rpm;
  28:main.c        ****     uint8 inertia=128,prev_inertia;
  29:main.c        ****     
  30:main.c        **** void LCD() // LCD Display
  31:main.c        **** {    
  32:main.c        ****            
  33:main.c        ****         LCD_Char_1_Position(0,0);
  34:main.c        ****         LCD_Char_1_PrintString("                ");
  35:main.c        ****         LCD_Char_1_Position(0,0);
  36:main.c        ****         LCD_Char_1_PrintString("DC MOTOR SPEED");
  37:main.c        ****         LCD_Char_1_Position(0,9);
  38:main.c        ****         LCD_Char_1_PrintString("                ");
  39:main.c        ****         LCD_Char_1_Position(0,9);
  40:main.c        ****         LCD_Char_1_PrintString("LAB5");
  41:main.c        ****         return;
  42:main.c        **** }
  43:main.c        **** 
  44:main.c        **** void LCDvalue(int value) // LCD Display Degree
  45:main.c        **** {   
  46:main.c        ****         {
  47:main.c        ****         LCD_Char_1_Position(1,0);
  48:main.c        ****         LCD_Char_1_PrintString("               ");
  49:main.c        ****         LCD_Char_1_Position(1,0);
  50:main.c        ****         LCD_Char_1_PrintString("PWM=");
  51:main.c        ****         LCD_Char_1_PrintU32Number(value);
  52:main.c        ****         } 
  53:main.c        ****         return;
  54:main.c        **** }
  55:main.c        ****  CY_ISR(isr_2_Interrupt)
  56:main.c        **** {   PWM_1_STATUS;
  33              		.loc 1 56 0
  34              		.cfi_startproc
  35              		@ args = 0, pretend = 0, frame = 0
  36              		@ frame_needed = 0, uses_anonymous_args = 0
  37 0000 F8B5     		push	{r3, r4, r5, r6, r7, lr}
  38              		.cfi_def_cfa_offset 24
  39              		.cfi_offset 3, -24
  40              		.cfi_offset 4, -20
  41              		.cfi_offset 5, -16
  42              		.cfi_offset 6, -12
  43              		.cfi_offset 7, -8
  44              		.cfi_offset 14, -4
  45              		.loc 1 56 0
  46 0002 2D4B     		ldr	r3, .L5+16
  47 0004 1B78     		ldrb	r3, [r3]	@ zero_extendqisi2
  57:main.c        ****     p0_0_Write(!p0_0_Read());    
  48              		.loc 1 57 0
  49 0006 FFF7FEFF 		bl	p0_0_Read
  50              	.LVL0:
  51 000a B0FA80F0 		clz	r0, r0
  52 000e 4009     		lsrs	r0, r0, #5
  53 0010 FFF7FEFF 		bl	p0_0_Write
  54              	.LVL1:
  58:main.c        ****     CyDelayUs(20);
  55              		.loc 1 58 0
  56 0014 1420     		movs	r0, #20
ARM GAS  C:\Users\monis\AppData\Local\Temp\ccX88cJk.s 			page 3


  57 0016 FFF7FEFF 		bl	CyDelayUs
  58              	.LVL2:
  59:main.c        ****     source_voltage = ADC_SAR_1_GetResult8();
  59              		.loc 1 59 0
  60 001a FFF7FEFF 		bl	ADC_SAR_1_GetResult8
  61              	.LVL3:
  62 001e C0B2     		uxtb	r0, r0
  63 0020 264B     		ldr	r3, .L5+20
  64 0022 1870     		strb	r0, [r3]
  60:main.c        ****     current = (source_voltage*2048)/(255.0 * 2.7);
  65              		.loc 1 60 0
  66 0024 C002     		lsls	r0, r0, #11
  67 0026 FFF7FEFF 		bl	__aeabi_i2d
  68              	.LVL4:
  69 002a 1FA3     		adr	r3, .L5
  70 002c D3E90023 		ldrd	r2, [r3]
  71 0030 FFF7FEFF 		bl	__aeabi_ddiv
  72              	.LVL5:
  73 0034 FFF7FEFF 		bl	__aeabi_d2uiz
  74              	.LVL6:
  75 0038 C5B2     		uxtb	r5, r0
  76 003a 214B     		ldr	r3, .L5+24
  77 003c 1D70     		strb	r5, [r3]
  61:main.c        ****     //delay 3 sec
  62:main.c        ****     ierror = current_ref - current;
  78              		.loc 1 62 0
  79 003e 214C     		ldr	r4, .L5+28
  80 0040 2078     		ldrb	r0, [r4]	@ zero_extendqisi2
  81 0042 401B     		subs	r0, r0, r5
  82 0044 40B2     		sxtb	r0, r0
  83 0046 5870     		strb	r0, [r3, #1]
  63:main.c        ****     inertia = inertia + 0.2 * ierror;
  84              		.loc 1 63 0
  85 0048 FFF7FEFF 		bl	__aeabi_i2d
  86              	.LVL7:
  87 004c 18A3     		adr	r3, .L5+8
  88 004e D3E90023 		ldrd	r2, [r3]
  89 0052 FFF7FEFF 		bl	__aeabi_dmul
  90              	.LVL8:
  91 0056 0646     		mov	r6, r0
  92 0058 0F46     		mov	r7, r1
  93 005a 6078     		ldrb	r0, [r4, #1]	@ zero_extendqisi2
  94 005c FFF7FEFF 		bl	__aeabi_i2d
  95              	.LVL9:
  96 0060 3246     		mov	r2, r6
  97 0062 3B46     		mov	r3, r7
  98 0064 FFF7FEFF 		bl	__aeabi_dadd
  99              	.LVL10:
 100 0068 FFF7FEFF 		bl	__aeabi_d2uiz
 101              	.LVL11:
 102 006c 6070     		strb	r0, [r4, #1]
  64:main.c        ****     VDAC8_1_SetValue(current);
 103              		.loc 1 64 0
 104 006e 2846     		mov	r0, r5
 105 0070 FFF7FEFF 		bl	VDAC8_1_SetValue
 106              	.LVL12:
  65:main.c        ****     VDAC8_2_SetValue(current_ref);
ARM GAS  C:\Users\monis\AppData\Local\Temp\ccX88cJk.s 			page 4


 107              		.loc 1 65 0
 108 0074 2078     		ldrb	r0, [r4]	@ zero_extendqisi2
 109 0076 FFF7FEFF 		bl	VDAC8_2_SetValue
 110              	.LVL13:
  66:main.c        ****     PWM_1_WriteCompare(inertia); 
 111              		.loc 1 66 0
 112 007a 6078     		ldrb	r0, [r4, #1]	@ zero_extendqisi2
 113 007c FFF7FEFF 		bl	PWM_1_WriteCompare
 114              	.LVL14:
  67:main.c        ****     if(inertia > 200)//handling math overflow
 115              		.loc 1 67 0
 116 0080 6378     		ldrb	r3, [r4, #1]	@ zero_extendqisi2
 117 0082 C82B     		cmp	r3, #200
 118 0084 03D9     		bls	.L2
  68:main.c        ****         {inertia=prev_inertia;}
 119              		.loc 1 68 0
 120 0086 104B     		ldr	r3, .L5+32
 121 0088 1A78     		ldrb	r2, [r3]	@ zero_extendqisi2
 122 008a 6270     		strb	r2, [r4, #1]
 123 008c 05E0     		b	.L3
 124              	.L2:
  69:main.c        ****     else if (inertia < 50)
 125              		.loc 1 69 0
 126 008e 312B     		cmp	r3, #49
 127 0090 03D8     		bhi	.L3
  70:main.c        ****         {inertia=prev_inertia;}
 128              		.loc 1 70 0
 129 0092 0D4B     		ldr	r3, .L5+32
 130 0094 1A78     		ldrb	r2, [r3]	@ zero_extendqisi2
 131 0096 0B4B     		ldr	r3, .L5+28
 132 0098 5A70     		strb	r2, [r3, #1]
 133              	.L3:
  71:main.c        ****      prev_inertia=inertia;
 134              		.loc 1 71 0
 135 009a 0A4B     		ldr	r3, .L5+28
 136 009c 5A78     		ldrb	r2, [r3, #1]	@ zero_extendqisi2
 137 009e 0A4B     		ldr	r3, .L5+32
 138 00a0 1A70     		strb	r2, [r3]
 139 00a2 F8BD     		pop	{r3, r4, r5, r6, r7, pc}
 140              	.L6:
 141 00a4 AFF30080 		.align	3
 142              	.L5:
 143 00a8 00000000 		.word	0
 144 00ac 00848540 		.word	1082491904
 145 00b0 9A999999 		.word	-1717986918
 146 00b4 9999C93F 		.word	1070176665
 147 00b8 65650040 		.word	1073767781
 148 00bc 00000000 		.word	source_voltage
 149 00c0 00000000 		.word	.LANCHOR0
 150 00c4 00000000 		.word	.LANCHOR1
 151 00c8 00000000 		.word	prev_inertia
 152              		.cfi_endproc
 153              	.LFE65:
 154              		.size	isr_2_Interrupt, .-isr_2_Interrupt
 155              		.section	.text.LCD,"ax",%progbits
 156              		.align	2
 157              		.global	LCD
ARM GAS  C:\Users\monis\AppData\Local\Temp\ccX88cJk.s 			page 5


 158              		.thumb
 159              		.thumb_func
 160              		.type	LCD, %function
 161              	LCD:
 162              	.LFB63:
  31:main.c        ****            
 163              		.loc 1 31 0
 164              		.cfi_startproc
 165              		@ args = 0, pretend = 0, frame = 0
 166              		@ frame_needed = 0, uses_anonymous_args = 0
 167 0000 10B5     		push	{r4, lr}
 168              		.cfi_def_cfa_offset 8
 169              		.cfi_offset 4, -8
 170              		.cfi_offset 14, -4
  33:main.c        ****         LCD_Char_1_PrintString("                ");
 171              		.loc 1 33 0
 172 0002 0021     		movs	r1, #0
 173 0004 0846     		mov	r0, r1
 174 0006 FFF7FEFF 		bl	LCD_Char_1_Position
 175              	.LVL15:
  34:main.c        ****         LCD_Char_1_Position(0,0);
 176              		.loc 1 34 0
 177 000a 0D4C     		ldr	r4, .L9
 178 000c 2046     		mov	r0, r4
 179 000e FFF7FEFF 		bl	LCD_Char_1_PrintString
 180              	.LVL16:
  35:main.c        ****         LCD_Char_1_PrintString("DC MOTOR SPEED");
 181              		.loc 1 35 0
 182 0012 0021     		movs	r1, #0
 183 0014 0846     		mov	r0, r1
 184 0016 FFF7FEFF 		bl	LCD_Char_1_Position
 185              	.LVL17:
  36:main.c        ****         LCD_Char_1_Position(0,9);
 186              		.loc 1 36 0
 187 001a 0A48     		ldr	r0, .L9+4
 188 001c FFF7FEFF 		bl	LCD_Char_1_PrintString
 189              	.LVL18:
  37:main.c        ****         LCD_Char_1_PrintString("                ");
 190              		.loc 1 37 0
 191 0020 0921     		movs	r1, #9
 192 0022 0020     		movs	r0, #0
 193 0024 FFF7FEFF 		bl	LCD_Char_1_Position
 194              	.LVL19:
  38:main.c        ****         LCD_Char_1_Position(0,9);
 195              		.loc 1 38 0
 196 0028 2046     		mov	r0, r4
 197 002a FFF7FEFF 		bl	LCD_Char_1_PrintString
 198              	.LVL20:
  39:main.c        ****         LCD_Char_1_PrintString("LAB5");
 199              		.loc 1 39 0
 200 002e 0921     		movs	r1, #9
 201 0030 0020     		movs	r0, #0
 202 0032 FFF7FEFF 		bl	LCD_Char_1_Position
 203              	.LVL21:
  40:main.c        ****         return;
 204              		.loc 1 40 0
 205 0036 0448     		ldr	r0, .L9+8
ARM GAS  C:\Users\monis\AppData\Local\Temp\ccX88cJk.s 			page 6


 206 0038 FFF7FEFF 		bl	LCD_Char_1_PrintString
 207              	.LVL22:
 208 003c 10BD     		pop	{r4, pc}
 209              	.L10:
 210 003e 00BF     		.align	2
 211              	.L9:
 212 0040 00000000 		.word	.LC0
 213 0044 14000000 		.word	.LC1
 214 0048 24000000 		.word	.LC2
 215              		.cfi_endproc
 216              	.LFE63:
 217              		.size	LCD, .-LCD
 218              		.section	.text.LCDvalue,"ax",%progbits
 219              		.align	2
 220              		.global	LCDvalue
 221              		.thumb
 222              		.thumb_func
 223              		.type	LCDvalue, %function
 224              	LCDvalue:
 225              	.LFB64:
  45:main.c        ****         {
 226              		.loc 1 45 0
 227              		.cfi_startproc
 228              		@ args = 0, pretend = 0, frame = 0
 229              		@ frame_needed = 0, uses_anonymous_args = 0
 230              	.LVL23:
 231 0000 10B5     		push	{r4, lr}
 232              		.cfi_def_cfa_offset 8
 233              		.cfi_offset 4, -8
 234              		.cfi_offset 14, -4
 235 0002 0446     		mov	r4, r0
  47:main.c        ****         LCD_Char_1_PrintString("               ");
 236              		.loc 1 47 0
 237 0004 0021     		movs	r1, #0
 238 0006 0120     		movs	r0, #1
 239              	.LVL24:
 240 0008 FFF7FEFF 		bl	LCD_Char_1_Position
 241              	.LVL25:
  48:main.c        ****         LCD_Char_1_Position(1,0);
 242              		.loc 1 48 0
 243 000c 0648     		ldr	r0, .L13
 244 000e FFF7FEFF 		bl	LCD_Char_1_PrintString
 245              	.LVL26:
  49:main.c        ****         LCD_Char_1_PrintString("PWM=");
 246              		.loc 1 49 0
 247 0012 0021     		movs	r1, #0
 248 0014 0120     		movs	r0, #1
 249 0016 FFF7FEFF 		bl	LCD_Char_1_Position
 250              	.LVL27:
  50:main.c        ****         LCD_Char_1_PrintU32Number(value);
 251              		.loc 1 50 0
 252 001a 0448     		ldr	r0, .L13+4
 253 001c FFF7FEFF 		bl	LCD_Char_1_PrintString
 254              	.LVL28:
  51:main.c        ****         } 
 255              		.loc 1 51 0
 256 0020 2046     		mov	r0, r4
ARM GAS  C:\Users\monis\AppData\Local\Temp\ccX88cJk.s 			page 7


 257 0022 FFF7FEFF 		bl	LCD_Char_1_PrintU32Number
 258              	.LVL29:
 259 0026 10BD     		pop	{r4, pc}
 260              	.LVL30:
 261              	.L14:
 262              		.align	2
 263              	.L13:
 264 0028 2C000000 		.word	.LC3
 265 002c 3C000000 		.word	.LC4
 266              		.cfi_endproc
 267              	.LFE64:
 268              		.size	LCDvalue, .-LCDvalue
 269              		.section	.text.main,"ax",%progbits
 270              		.align	2
 271              		.global	main
 272              		.thumb
 273              		.thumb_func
 274              		.type	main, %function
 275              	main:
 276              	.LFB66:
  72:main.c        **** }
  73:main.c        **** 
  74:main.c        **** int main()
  75:main.c        **** {
 277              		.loc 1 75 0
 278              		.cfi_startproc
 279              		@ Volatile: function does not return.
 280              		@ args = 0, pretend = 0, frame = 0
 281              		@ frame_needed = 0, uses_anonymous_args = 0
 282 0000 08B5     		push	{r3, lr}
 283              		.cfi_def_cfa_offset 8
 284              		.cfi_offset 3, -8
 285              		.cfi_offset 14, -4
  76:main.c        ****     CyGlobalIntEnable; /* Enable global interrupts. */
 286              		.loc 1 76 0
 287              		.syntax unified
 288              	@ 76 "main.c" 1
 289 0002 62B6     		CPSIE   i
 290              	@ 0 "" 2
  77:main.c        ****     //int16 threesecsync=100000*3.000/time;
  78:main.c        ****     LCD_Char_1_Start();
 291              		.loc 1 78 0
 292              		.thumb
 293              		.syntax unified
 294 0004 FFF7FEFF 		bl	LCD_Char_1_Start
 295              	.LVL31:
  79:main.c        ****     LCD();
 296              		.loc 1 79 0
 297 0008 FFF7FEFF 		bl	LCD
 298              	.LVL32:
  80:main.c        ****     CyDelay(1000);     
 299              		.loc 1 80 0
 300 000c 4FF47A70 		mov	r0, #1000
 301 0010 FFF7FEFF 		bl	CyDelay
 302              	.LVL33:
  81:main.c        ****     LCD_Char_1_ClearDisplay();     
 303              		.loc 1 81 0
ARM GAS  C:\Users\monis\AppData\Local\Temp\ccX88cJk.s 			page 8


 304 0014 0120     		movs	r0, #1
 305 0016 FFF7FEFF 		bl	LCD_Char_1_WriteControl
 306              	.LVL34:
  82:main.c        ****     PWM_1_Start(); //creates a pwm from pot
 307              		.loc 1 82 0
 308 001a FFF7FEFF 		bl	PWM_1_Start
 309              	.LVL35:
  83:main.c        ****     QuadDec_1_Start();  //count encoder edges
 310              		.loc 1 83 0
 311 001e FFF7FEFF 		bl	QuadDec_1_Start
 312              	.LVL36:
  84:main.c        ****     ADC_SAR_2_Start();
 313              		.loc 1 84 0
 314 0022 FFF7FEFF 		bl	ADC_SAR_2_Start
 315              	.LVL37:
  85:main.c        ****     ADC_SAR_2_StartConvert();  
 316              		.loc 1 85 0
 317 0026 FFF7FEFF 		bl	ADC_SAR_2_StartConvert
 318              	.LVL38:
  86:main.c        ****     ADC_SAR_1_Start();
 319              		.loc 1 86 0
 320 002a FFF7FEFF 		bl	ADC_SAR_1_Start
 321              	.LVL39:
  87:main.c        ****     ADC_SAR_1_StartConvert();  
 322              		.loc 1 87 0
 323 002e FFF7FEFF 		bl	ADC_SAR_1_StartConvert
 324              	.LVL40:
  88:main.c        ****     VDAC8_1_Start();
 325              		.loc 1 88 0
 326 0032 FFF7FEFF 		bl	VDAC8_1_Start
 327              	.LVL41:
  89:main.c        ****     VDAC8_2_Start();  
 328              		.loc 1 89 0
 329 0036 FFF7FEFF 		bl	VDAC8_2_Start
 330              	.LVL42:
  90:main.c        ****     /* Place your initialization/startup code here (e.g. MyInst_Start()) */
  91:main.c        ****     isr_1_Start();
 331              		.loc 1 91 0
 332 003a FFF7FEFF 		bl	isr_1_Start
 333              	.LVL43:
  92:main.c        ****     isr_1_StartEx(isr_2_Interrupt);
 334              		.loc 1 92 0
 335 003e 4448     		ldr	r0, .L25+8
 336 0040 FFF7FEFF 		bl	isr_1_StartEx
 337              	.LVL44:
 338              	.L21:
  93:main.c        ****     for(;;)
  94:main.c        ****     {  
  95:main.c        ****         PWM_1_WriteCompare(inertia); 
 339              		.loc 1 95 0
 340 0044 434B     		ldr	r3, .L25+12
 341 0046 5878     		ldrb	r0, [r3, #1]	@ zero_extendqisi2
 342 0048 FFF7FEFF 		bl	PWM_1_WriteCompare
 343              	.LVL45:
  96:main.c        ****         
  97:main.c        ****      //PWM_1_WriteCompare(inertia);      
  98:main.c        ****      loop++;    //  LCDvalue(ADC_Count_Output);
ARM GAS  C:\Users\monis\AppData\Local\Temp\ccX88cJk.s 			page 9


 344              		.loc 1 98 0
 345 004c 424A     		ldr	r2, .L25+16
 346 004e 5368     		ldr	r3, [r2, #4]
 347 0050 0133     		adds	r3, r3, #1
 348 0052 5360     		str	r3, [r2, #4]
  99:main.c        ****            //creates a PWM signal comparing a counter clock to the ADC counts output.
 100:main.c        ****         
 101:main.c        ****        // STEP 3 - Speed measurement by encoder
 102:main.c        ****        // motor pins green - vssd, blue - vddd, yellow - A P0_1, white - B P0-2
 103:main.c        ****        // method 2 - read the time between rising edges
 104:main.c        **** 
 105:main.c        ****  
 106:main.c        ****        /* if (loop % 100000 == 0) 
 107:main.c        ****         {        
 108:main.c        ****           quadcountnew = QuadDec_1_GetCounter();//returned the edges counted - about 304 per revolu
 109:main.c        ****           if(quadcountnew < 0)          
 110:main.c        ****           {
 111:main.c        ****             quadcountnew *= -1;
 112:main.c        ****           }   
 113:main.c        **** 
 114:main.c        ****         quadcount = quadcountnew - quadcountprevious;//calculate RPM
 115:main.c        ****         rpm = (quadcount * 1000 * 60 )/ (300.0 * time) ;    //304 = counts per rev. of gear shaft
 116:main.c        ****         //p0_0_Write( ~p0_0_Read() ); //toggle pin to get time from scope            
 117:main.c        ****         quadcountprevious = quadcountnew;
 118:main.c        ****        
 119:main.c        ****         PWM_1_Stop();
 120:main.c        ****         p3_7_Write(0);//interrupt the pwm for
 121:main.c        ****         p0_0_Write(0);
 122:main.c        ****         CyDelayUs(1200);
 123:main.c        ****         //the longer the delay, the more pulsing we see on the scope on the drain
 124:main.c        ****         //Convert the measured voltage to rpm and display the result on the LCD 
 125:main.c        ****         //Step 4 - Speed measurement by Back-EMF
 126:main.c        ****         //briefly interrupt the PWM switching on a periodic basis so that you can measure the Back-
 127:main.c        ****         ADC_2_Count_Output = ADC_SAR_2_GetResult8();
 128:main.c        ****         ADC_2_Count_Output_5 = 255 - ADC_2_Count_Output;   
 129:main.c        ****         average =(ADC_2_Count_Output_5+ADC_2_Count_Output_4)/2.0;
 130:main.c        ****         ADC_2_Count_Output_4=average;
 131:main.c        ****         PWM_1_Start();
 132:main.c        ****         p0_0_Write(1);
 133:main.c        ****         VDAC8_1_Start();
 134:main.c        ****         VDAC8_2_Start();
 135:main.c        ****         //calculate RPM from EMF voltage
 136:main.c        ****         emfrpm = 0.8858 * average + 7.0034;
 137:main.c        ****         
 138:main.c        ****         //3 sec mode change
 139:main.c        ****         if(mode==1)
 140:main.c        ****         {speedref=40;}
 141:main.c        ****         if(mode==2)
 142:main.c        ****         {speedref=80;}
 143:main.c        ****         if(mode==3)
 144:main.c        ****         {speedref=120;}
 145:main.c        ****         
 146:main.c        ****         //Feedback section
 147:main.c        ****         //error = speedref - rpm;
 148:main.c        ****         error = speedref - emfrpm;
 149:main.c        ****         //error = (error_new + error_prev)/2;
 150:main.c        ****         //error_prev = error_new;
ARM GAS  C:\Users\monis\AppData\Local\Temp\ccX88cJk.s 			page 10


 151:main.c        ****         inertia = inertia + error;
 152:main.c        ****         if(inertia>255|inertia<0)//handling math overflow
 153:main.c        ****         {inertia=100;}
 154:main.c        ****         VDAC8_1_SetValue(speedref);
 155:main.c        ****         VDAC8_2_SetValue(emfrpm);
 156:main.c        ****         if(loop % 500000 == 0)    
 157:main.c        ****             {
 158:main.c        ****             LCD_Char_1_Position(0,0);
 159:main.c        ****             LCD_Char_1_PrintString("Shaftrpm:            ");     
 160:main.c        ****             LCD_Char_1_Position(0,9);        
 161:main.c        ****             LCD_Char_1_PrintU32Number(rpm);    
 162:main.c        ****             LCD_Char_1_Position(1,0);
 163:main.c        ****             LCD_Char_1_PrintString("emfrpm:            ");     
 164:main.c        ****             LCD_Char_1_Position(1,7);        
 165:main.c        ****             LCD_Char_1_PrintU32Number(emfrpm);  
 166:main.c        ****             LCD_Char_1_Position(0,12);
 167:main.c        ****             LCD_Char_1_PrintString("e:");     
 168:main.c        ****             LCD_Char_1_Position(0,14);        
 169:main.c        ****             LCD_Char_1_PrintInt8(error);   
 170:main.c        ****             LCD_Char_1_Position(1,12);
 171:main.c        ****             LCD_Char_1_PrintString("m: ");     
 172:main.c        ****             LCD_Char_1_Position(1,14);        
 173:main.c        ****             LCD_Char_1_PrintNumber(mode);
 174:main.c        ****             }    
 175:main.c        ****         }
 176:main.c        ****         //delay 3 sec
 177:main.c        ****          if (loop % 1600000 == 0) 
 178:main.c        ****         {
 179:main.c        ****         loop=0;    
 180:main.c        ****         if(mode==3)
 181:main.c        ****         {mode=1;}
 182:main.c        ****         else
 183:main.c        ****         {mode++;}
 184:main.c        ****         }
 185:main.c        ****     }*/    
 186:main.c        ****     if(p3_7_Read()==1) 
 349              		.loc 1 186 0
 350 0054 FFF7FEFF 		bl	p3_7_Read
 351              	.LVL46:
 352 0058 0128     		cmp	r0, #1
 353 005a 12D1     		bne	.L17
 187:main.c        ****     {
 188:main.c        ****         //interrupt the pwm for
 189:main.c        ****     /*PWM_1_Stop();
 190:main.c        ****        if(ierror<0)
 191:main.c        ****         p3_7_Write(0);//interrupt the pwm for
 192:main.c        ****        if(ierror>0)
 193:main.c        ****         p3_7_Write(1);
 194:main.c        ****        CyDelayUs(1200);
 195:main.c        ****     PWM_1_Start();
 196:main.c        ****     */   
 197:main.c        ****     PWM_1_Stop();
 354              		.loc 1 197 0
 355 005c FFF7FEFF 		bl	PWM_1_Stop
 356              	.LVL47:
 198:main.c        ****     if(current_ref > current)
 357              		.loc 1 198 0
ARM GAS  C:\Users\monis\AppData\Local\Temp\ccX88cJk.s 			page 11


 358 0060 3C4B     		ldr	r3, .L25+12
 359 0062 1A78     		ldrb	r2, [r3]	@ zero_extendqisi2
 360 0064 3C4B     		ldr	r3, .L25+16
 361 0066 1B78     		ldrb	r3, [r3]	@ zero_extendqisi2
 362 0068 9A42     		cmp	r2, r3
 363 006a 04D9     		bls	.L18
 199:main.c        ****     {inertia ++;}
 364              		.loc 1 199 0
 365 006c 394A     		ldr	r2, .L25+12
 366 006e 5378     		ldrb	r3, [r2, #1]	@ zero_extendqisi2
 367 0070 0133     		adds	r3, r3, #1
 368 0072 5370     		strb	r3, [r2, #1]
 369 0074 03E0     		b	.L19
 370              	.L18:
 200:main.c        ****     else
 201:main.c        ****     {inertia--;}
 371              		.loc 1 201 0
 372 0076 374A     		ldr	r2, .L25+12
 373 0078 5378     		ldrb	r3, [r2, #1]	@ zero_extendqisi2
 374 007a 013B     		subs	r3, r3, #1
 375 007c 5370     		strb	r3, [r2, #1]
 376              	.L19:
 202:main.c        ****     PWM_1_Start();
 377              		.loc 1 202 0
 378 007e FFF7FEFF 		bl	PWM_1_Start
 379              	.LVL48:
 380              	.L17:
 203:main.c        ****     }
 204:main.c        ****     if (loop % 100000 == 0) 
 381              		.loc 1 204 0
 382 0082 354B     		ldr	r3, .L25+16
 383 0084 5A68     		ldr	r2, [r3, #4]
 384 0086 354B     		ldr	r3, .L25+20
 385 0088 83FB0231 		smull	r3, r1, r3, r2
 386 008c D317     		asrs	r3, r2, #31
 387 008e C3EB6133 		rsb	r3, r3, r1, asr #13
 388 0092 3349     		ldr	r1, .L25+24
 389 0094 01FB1323 		mls	r3, r1, r3, r2
 390 0098 002B     		cmp	r3, #0
 391 009a 37D1     		bne	.L20
 205:main.c        ****     {LCD_Char_1_Position(1,0);
 392              		.loc 1 205 0
 393 009c 0021     		movs	r1, #0
 394 009e 0120     		movs	r0, #1
 395 00a0 FFF7FEFF 		bl	LCD_Char_1_Position
 396              	.LVL49:
 206:main.c        ****             LCD_Char_1_PrintString("current:        ");     
 397              		.loc 1 206 0
 398 00a4 2F48     		ldr	r0, .L25+28
 399 00a6 FFF7FEFF 		bl	LCD_Char_1_PrintString
 400              	.LVL50:
 207:main.c        ****             LCD_Char_1_Position(1,8);        
 401              		.loc 1 207 0
 402 00aa 0821     		movs	r1, #8
 403 00ac 0120     		movs	r0, #1
 404 00ae FFF7FEFF 		bl	LCD_Char_1_Position
 405              	.LVL51:
ARM GAS  C:\Users\monis\AppData\Local\Temp\ccX88cJk.s 			page 12


 208:main.c        ****             LCD_Char_1_PrintU32Number(current);    
 406              		.loc 1 208 0
 407 00b2 294B     		ldr	r3, .L25+16
 408 00b4 1878     		ldrb	r0, [r3]	@ zero_extendqisi2
 409 00b6 FFF7FEFF 		bl	LCD_Char_1_PrintU32Number
 410              	.LVL52:
 209:main.c        ****             LCD_Char_1_Position(0,0);
 411              		.loc 1 209 0
 412 00ba 0021     		movs	r1, #0
 413 00bc 0846     		mov	r0, r1
 414 00be FFF7FEFF 		bl	LCD_Char_1_Position
 415              	.LVL53:
 210:main.c        ****             LCD_Char_1_PrintString("ref:     ");     
 416              		.loc 1 210 0
 417 00c2 2948     		ldr	r0, .L25+32
 418 00c4 FFF7FEFF 		bl	LCD_Char_1_PrintString
 419              	.LVL54:
 211:main.c        ****             LCD_Char_1_Position(0,4);        
 420              		.loc 1 211 0
 421 00c8 0421     		movs	r1, #4
 422 00ca 0020     		movs	r0, #0
 423 00cc FFF7FEFF 		bl	LCD_Char_1_Position
 424              	.LVL55:
 212:main.c        ****             LCD_Char_1_PrintU32Number(current_ref);  
 425              		.loc 1 212 0
 426 00d0 204C     		ldr	r4, .L25+12
 427 00d2 2078     		ldrb	r0, [r4]	@ zero_extendqisi2
 428 00d4 FFF7FEFF 		bl	LCD_Char_1_PrintU32Number
 429              	.LVL56:
 213:main.c        ****             LCD_Char_1_Position(0,8);
 430              		.loc 1 213 0
 431 00d8 0821     		movs	r1, #8
 432 00da 0020     		movs	r0, #0
 433 00dc FFF7FEFF 		bl	LCD_Char_1_Position
 434              	.LVL57:
 214:main.c        ****             LCD_Char_1_PrintString("duty:   ");     
 435              		.loc 1 214 0
 436 00e0 2248     		ldr	r0, .L25+36
 437 00e2 FFF7FEFF 		bl	LCD_Char_1_PrintString
 438              	.LVL58:
 215:main.c        ****             LCD_Char_1_Position(0,13);        
 439              		.loc 1 215 0
 440 00e6 0D21     		movs	r1, #13
 441 00e8 0020     		movs	r0, #0
 442 00ea FFF7FEFF 		bl	LCD_Char_1_Position
 443              	.LVL59:
 216:main.c        ****             LCD_Char_1_PrintU32Number((100*inertia/255.0));
 444              		.loc 1 216 0
 445 00ee 6378     		ldrb	r3, [r4, #1]	@ zero_extendqisi2
 446 00f0 6420     		movs	r0, #100
 447 00f2 00FB03F0 		mul	r0, r0, r3
 448 00f6 FFF7FEFF 		bl	__aeabi_i2d
 449              	.LVL60:
 450 00fa 13A3     		adr	r3, .L25
 451 00fc D3E90023 		ldrd	r2, [r3]
 452 0100 FFF7FEFF 		bl	__aeabi_ddiv
 453              	.LVL61:
ARM GAS  C:\Users\monis\AppData\Local\Temp\ccX88cJk.s 			page 13


 454 0104 FFF7FEFF 		bl	__aeabi_d2uiz
 455              	.LVL62:
 456 0108 FFF7FEFF 		bl	LCD_Char_1_PrintU32Number
 457              	.LVL63:
 458              	.L20:
 217:main.c        ****             /*LCD_Char_1_Position(1,11);
 218:main.c        ****             LCD_Char_1_PrintString("e:   ");     
 219:main.c        ****             LCD_Char_1_Position(1,13);        
 220:main.c        ****             LCD_Char_1_PrintU32Number((100*inertia/255.0));*/
 221:main.c        ****      } 
 222:main.c        ****      if (loop % 450000 == 0) 
 459              		.loc 1 222 0
 460 010c 124B     		ldr	r3, .L25+16
 461 010e 5A68     		ldr	r2, [r3, #4]
 462 0110 174B     		ldr	r3, .L25+40
 463 0112 83FB0231 		smull	r3, r1, r3, r2
 464 0116 D317     		asrs	r3, r2, #31
 465 0118 C3EB6143 		rsb	r3, r3, r1, asr #17
 466 011c 1549     		ldr	r1, .L25+44
 467 011e 01FB1323 		mls	r3, r1, r3, r2
 468 0122 002B     		cmp	r3, #0
 469 0124 8ED1     		bne	.L21
 223:main.c        ****      {
 224:main.c        ****      loop=0;    
 470              		.loc 1 224 0
 471 0126 0022     		movs	r2, #0
 472 0128 0B4B     		ldr	r3, .L25+16
 473 012a 5A60     		str	r2, [r3, #4]
 225:main.c        ****      if(current_ref==100)
 474              		.loc 1 225 0
 475 012c 094B     		ldr	r3, .L25+12
 476 012e 1B78     		ldrb	r3, [r3]	@ zero_extendqisi2
 477 0130 642B     		cmp	r3, #100
 478 0132 03D1     		bne	.L22
 226:main.c        ****      {current_ref=200;}
 479              		.loc 1 226 0
 480 0134 C822     		movs	r2, #200
 481 0136 074B     		ldr	r3, .L25+12
 482 0138 1A70     		strb	r2, [r3]
 483 013a 83E7     		b	.L21
 484              	.L22:
 227:main.c        ****       else
 228:main.c        ****         {current_ref=100;}
 485              		.loc 1 228 0
 486 013c 6422     		movs	r2, #100
 487 013e 054B     		ldr	r3, .L25+12
 488 0140 1A70     		strb	r2, [r3]
 489 0142 7FE7     		b	.L21
 490              	.L26:
 491 0144 AFF30080 		.align	3
 492              	.L25:
 493 0148 00000000 		.word	0
 494 014c 00E06F40 		.word	1081073664
 495 0150 00000000 		.word	isr_2_Interrupt
 496 0154 00000000 		.word	.LANCHOR1
 497 0158 00000000 		.word	.LANCHOR0
 498 015c 89B5F814 		.word	351843721
ARM GAS  C:\Users\monis\AppData\Local\Temp\ccX88cJk.s 			page 14


 499 0160 A0860100 		.word	100000
 500 0164 44000000 		.word	.LC5
 501 0168 58000000 		.word	.LC6
 502 016c 64000000 		.word	.LC7
 503 0170 59BE904A 		.word	1250999897
 504 0174 D0DD0600 		.word	450000
 505              		.cfi_endproc
 506              	.LFE66:
 507              		.size	main, .-main
 508              		.comm	prev_inertia,1,1
 509              		.global	inertia
 510              		.comm	rpm,4,4
 511              		.global	mode
 512              		.global	speedref
 513              		.global	emfrpm
 514              		.comm	period,2,2
 515              		.global	time
 516              		.global	loop
 517              		.global	ierror
 518              		.comm	error,1,1
 519              		.comm	error_new,1,1
 520              		.comm	error_prev,1,1
 521              		.global	quadcountprevious
 522              		.global	quadcount
 523              		.global	quadcountnew
 524              		.global	ADC_2_Count_Output_4
 525              		.global	ADC_2_Count_Output_5
 526              		.global	ADC_2_Count_Output_3
 527              		.global	ADC_2_Count_Output_2
 528              		.global	ADC_2_Count_Output_1
 529              		.global	current_ref
 530              		.global	current
 531              		.global	ADC_2_Count_Output
 532              		.comm	source_voltage,1,1
 533              		.global	ADC_Count_Output
 534              		.data
 535              		.align	2
 536              		.set	.LANCHOR1,. + 0
 537              		.type	current_ref, %object
 538              		.size	current_ref, 1
 539              	current_ref:
 540 0000 64       		.byte	100
 541              		.type	inertia, %object
 542              		.size	inertia, 1
 543              	inertia:
 544 0001 80       		.byte	-128
 545 0002 0000     		.space	2
 546              		.type	mode, %object
 547              		.size	mode, 4
 548              	mode:
 549 0004 01000000 		.word	1
 550              		.type	speedref, %object
 551              		.size	speedref, 4
 552              	speedref:
 553 0008 28000000 		.word	40
 554              		.type	time, %object
 555              		.size	time, 2
ARM GAS  C:\Users\monis\AppData\Local\Temp\ccX88cJk.s 			page 15


 556              	time:
 557 000c B400     		.short	180
 558              		.section	.rodata.str1.4,"aMS",%progbits,1
 559              		.align	2
 560              	.LC0:
 561 0000 20202020 		.ascii	"                \000"
 561      20202020 
 561      20202020 
 561      20202020 
 561      00
 562 0011 000000   		.space	3
 563              	.LC1:
 564 0014 4443204D 		.ascii	"DC MOTOR SPEED\000"
 564      4F544F52 
 564      20535045 
 564      454400
 565 0023 00       		.space	1
 566              	.LC2:
 567 0024 4C414235 		.ascii	"LAB5\000"
 567      00
 568 0029 000000   		.space	3
 569              	.LC3:
 570 002c 20202020 		.ascii	"               \000"
 570      20202020 
 570      20202020 
 570      20202000 
 571              	.LC4:
 572 003c 50574D3D 		.ascii	"PWM=\000"
 572      00
 573 0041 000000   		.space	3
 574              	.LC5:
 575 0044 63757272 		.ascii	"current:        \000"
 575      656E743A 
 575      20202020 
 575      20202020 
 575      00
 576 0055 000000   		.space	3
 577              	.LC6:
 578 0058 7265663A 		.ascii	"ref:     \000"
 578      20202020 
 578      2000
 579 0062 0000     		.space	2
 580              	.LC7:
 581 0064 64757479 		.ascii	"duty:   \000"
 581      3A202020 
 581      00
 582              		.bss
 583              		.align	2
 584              		.set	.LANCHOR0,. + 0
 585              		.type	current, %object
 586              		.size	current, 1
 587              	current:
 588 0000 00       		.space	1
 589              		.type	ierror, %object
 590              		.size	ierror, 1
 591              	ierror:
 592 0001 00       		.space	1
ARM GAS  C:\Users\monis\AppData\Local\Temp\ccX88cJk.s 			page 16


 593 0002 0000     		.space	2
 594              		.type	loop, %object
 595              		.size	loop, 4
 596              	loop:
 597 0004 00000000 		.space	4
 598              		.type	emfrpm, %object
 599              		.size	emfrpm, 2
 600              	emfrpm:
 601 0008 0000     		.space	2
 602              		.type	quadcountprevious, %object
 603              		.size	quadcountprevious, 1
 604              	quadcountprevious:
 605 000a 00       		.space	1
 606 000b 00       		.space	1
 607              		.type	quadcount, %object
 608              		.size	quadcount, 2
 609              	quadcount:
 610 000c 0000     		.space	2
 611              		.type	quadcountnew, %object
 612              		.size	quadcountnew, 2
 613              	quadcountnew:
 614 000e 0000     		.space	2
 615              		.type	ADC_2_Count_Output_4, %object
 616              		.size	ADC_2_Count_Output_4, 1
 617              	ADC_2_Count_Output_4:
 618 0010 00       		.space	1
 619              		.type	ADC_2_Count_Output_5, %object
 620              		.size	ADC_2_Count_Output_5, 1
 621              	ADC_2_Count_Output_5:
 622 0011 00       		.space	1
 623              		.type	ADC_2_Count_Output_3, %object
 624              		.size	ADC_2_Count_Output_3, 1
 625              	ADC_2_Count_Output_3:
 626 0012 00       		.space	1
 627              		.type	ADC_2_Count_Output_2, %object
 628              		.size	ADC_2_Count_Output_2, 1
 629              	ADC_2_Count_Output_2:
 630 0013 00       		.space	1
 631              		.type	ADC_2_Count_Output_1, %object
 632              		.size	ADC_2_Count_Output_1, 1
 633              	ADC_2_Count_Output_1:
 634 0014 00       		.space	1
 635              		.type	ADC_2_Count_Output, %object
 636              		.size	ADC_2_Count_Output, 1
 637              	ADC_2_Count_Output:
 638 0015 00       		.space	1
 639              		.type	ADC_Count_Output, %object
 640              		.size	ADC_Count_Output, 1
 641              	ADC_Count_Output:
 642 0016 00       		.space	1
 643              		.text
 644              	.Letext0:
 645              		.file 2 "c:\\program files (x86)\\cypress\\psoc creator\\4.1\\psoc creator\\import\\gnu\\arm\\5.4.
 646              		.file 3 "c:\\program files (x86)\\cypress\\psoc creator\\4.1\\psoc creator\\import\\gnu\\arm\\5.4.
 647              		.file 4 "Generated_Source\\PSoC5/cytypes.h"
 648              		.file 5 "Generated_Source\\PSoC5/core_cm3.h"
 649              		.file 6 "Generated_Source\\PSoC5/p0_0.h"
ARM GAS  C:\Users\monis\AppData\Local\Temp\ccX88cJk.s 			page 17


 650              		.file 7 "Generated_Source\\PSoC5/CyLib.h"
 651              		.file 8 "Generated_Source\\PSoC5/ADC_SAR_1.h"
 652              		.file 9 "Generated_Source\\PSoC5/VDAC8_1.h"
 653              		.file 10 "Generated_Source\\PSoC5/VDAC8_2.h"
 654              		.file 11 "Generated_Source\\PSoC5/PWM_1.h"
 655              		.file 12 "Generated_Source\\PSoC5/LCD_Char_1.h"
 656              		.file 13 "Generated_Source\\PSoC5/QuadDec_1.h"
 657              		.file 14 "Generated_Source\\PSoC5/ADC_SAR_2.h"
 658              		.file 15 "Generated_Source\\PSoC5/isr_1.h"
 659              		.file 16 "Generated_Source\\PSoC5/p3_7.h"