ARM GAS  C:\Users\monis\AppData\Local\Temp\ccYnYKe0.s 			page 1


   1              		.syntax unified
   2              		.cpu cortex-m3
   3              		.fpu softvfp
   4              		.eabi_attribute 20, 1
   5              		.eabi_attribute 21, 1
   6              		.eabi_attribute 23, 3
   7              		.eabi_attribute 24, 1
   8              		.eabi_attribute 25, 1
   9              		.eabi_attribute 26, 1
  10              		.eabi_attribute 30, 1
  11              		.eabi_attribute 34, 1
  12              		.eabi_attribute 18, 4
  13              		.thumb
  14              		.syntax unified
  15              		.file	"main.c"
  16              		.text
  17              	.Ltext0:
  18              		.cfi_sections	.debug_frame
  19              		.section	.text.LCD,"ax",%progbits
  20              		.align	2
  21              		.global	LCD
  22              		.thumb
  23              		.thumb_func
  24              		.type	LCD, %function
  25              	LCD:
  26              	.LFB63:
  27              		.file 1 "main.c"
   1:main.c        **** /* ========================================
   2:main.c        ****  *
   3:main.c        ****  * ECEN 5053 -  Lab 4
   4:main.c        ****  * Maria Toscano and Monish Nene
   5:main.c        ****  *
   6:main.c        ****  * CONFIDENTIAL AND PROPRIETARY INFORMATION
   7:main.c        ****  * WHICH IS THE PROPERTY OF your company.
   8:main.c        ****  *
   9:main.c        ****  * ========================================
  10:main.c        **** */
  11:main.c        **** #include "project.h"
  12:main.c        **** 
  13:main.c        **** 
  14:main.c        **** void LCD() // LCD Display
  15:main.c        **** {    
  28              		.loc 1 15 0
  29              		.cfi_startproc
  30              		@ args = 0, pretend = 0, frame = 0
  31              		@ frame_needed = 0, uses_anonymous_args = 0
  32 0000 10B5     		push	{r4, lr}
  33              		.cfi_def_cfa_offset 8
  34              		.cfi_offset 4, -8
  35              		.cfi_offset 14, -4
  16:main.c        ****            
  17:main.c        ****         LCD_Char_1_Position(0,0);
  36              		.loc 1 17 0
  37 0002 0021     		movs	r1, #0
  38 0004 0846     		mov	r0, r1
  39 0006 FFF7FEFF 		bl	LCD_Char_1_Position
  40              	.LVL0:
ARM GAS  C:\Users\monis\AppData\Local\Temp\ccYnYKe0.s 			page 2


  18:main.c        ****         LCD_Char_1_PrintString("                ");
  41              		.loc 1 18 0
  42 000a 0D4C     		ldr	r4, .L3
  43 000c 2046     		mov	r0, r4
  44 000e FFF7FEFF 		bl	LCD_Char_1_PrintString
  45              	.LVL1:
  19:main.c        ****         LCD_Char_1_Position(0,0);
  46              		.loc 1 19 0
  47 0012 0021     		movs	r1, #0
  48 0014 0846     		mov	r0, r1
  49 0016 FFF7FEFF 		bl	LCD_Char_1_Position
  50              	.LVL2:
  20:main.c        ****         LCD_Char_1_PrintString("DC MOTOR");
  51              		.loc 1 20 0
  52 001a 0A48     		ldr	r0, .L3+4
  53 001c FFF7FEFF 		bl	LCD_Char_1_PrintString
  54              	.LVL3:
  21:main.c        ****         LCD_Char_1_Position(0,9);
  55              		.loc 1 21 0
  56 0020 0921     		movs	r1, #9
  57 0022 0020     		movs	r0, #0
  58 0024 FFF7FEFF 		bl	LCD_Char_1_Position
  59              	.LVL4:
  22:main.c        ****         LCD_Char_1_PrintString("                ");
  60              		.loc 1 22 0
  61 0028 2046     		mov	r0, r4
  62 002a FFF7FEFF 		bl	LCD_Char_1_PrintString
  63              	.LVL5:
  23:main.c        ****         LCD_Char_1_Position(0,9);
  64              		.loc 1 23 0
  65 002e 0921     		movs	r1, #9
  66 0030 0020     		movs	r0, #0
  67 0032 FFF7FEFF 		bl	LCD_Char_1_Position
  68              	.LVL6:
  24:main.c        ****         LCD_Char_1_PrintString("LAB4");
  69              		.loc 1 24 0
  70 0036 0448     		ldr	r0, .L3+8
  71 0038 FFF7FEFF 		bl	LCD_Char_1_PrintString
  72              	.LVL7:
  73 003c 10BD     		pop	{r4, pc}
  74              	.L4:
  75 003e 00BF     		.align	2
  76              	.L3:
  77 0040 00000000 		.word	.LC0
  78 0044 14000000 		.word	.LC1
  79 0048 20000000 		.word	.LC2
  80              		.cfi_endproc
  81              	.LFE63:
  82              		.size	LCD, .-LCD
  83              		.section	.text.LCDvalue,"ax",%progbits
  84              		.align	2
  85              		.global	LCDvalue
  86              		.thumb
  87              		.thumb_func
  88              		.type	LCDvalue, %function
  89              	LCDvalue:
  90              	.LFB64:
ARM GAS  C:\Users\monis\AppData\Local\Temp\ccYnYKe0.s 			page 3


  25:main.c        ****         return;
  26:main.c        **** }
  27:main.c        **** 
  28:main.c        **** void LCDvalue(int value) // LCD Display Degree
  29:main.c        **** {   
  91              		.loc 1 29 0
  92              		.cfi_startproc
  93              		@ args = 0, pretend = 0, frame = 0
  94              		@ frame_needed = 0, uses_anonymous_args = 0
  95              	.LVL8:
  96 0000 10B5     		push	{r4, lr}
  97              		.cfi_def_cfa_offset 8
  98              		.cfi_offset 4, -8
  99              		.cfi_offset 14, -4
 100 0002 0446     		mov	r4, r0
 101              	.LVL9:
  30:main.c        ****    uint32 loop = 0;
  31:main.c        ****        if (loop % 500000 == 0) 
  32:main.c        ****         {
  33:main.c        ****         LCD_Char_1_Position(1,0);
 102              		.loc 1 33 0
 103 0004 0021     		movs	r1, #0
 104 0006 0120     		movs	r0, #1
 105              	.LVL10:
 106 0008 FFF7FEFF 		bl	LCD_Char_1_Position
 107              	.LVL11:
  34:main.c        ****         LCD_Char_1_PrintString("               ");
 108              		.loc 1 34 0
 109 000c 0648     		ldr	r0, .L7
 110 000e FFF7FEFF 		bl	LCD_Char_1_PrintString
 111              	.LVL12:
  35:main.c        ****         LCD_Char_1_Position(1,0);
 112              		.loc 1 35 0
 113 0012 0021     		movs	r1, #0
 114 0014 0120     		movs	r0, #1
 115 0016 FFF7FEFF 		bl	LCD_Char_1_Position
 116              	.LVL13:
  36:main.c        ****         LCD_Char_1_PrintString("PWM=");
 117              		.loc 1 36 0
 118 001a 0448     		ldr	r0, .L7+4
 119 001c FFF7FEFF 		bl	LCD_Char_1_PrintString
 120              	.LVL14:
  37:main.c        ****         LCD_Char_1_PrintU32Number(value);
 121              		.loc 1 37 0
 122 0020 2046     		mov	r0, r4
 123 0022 FFF7FEFF 		bl	LCD_Char_1_PrintU32Number
 124              	.LVL15:
 125 0026 10BD     		pop	{r4, pc}
 126              	.LVL16:
 127              	.L8:
 128              		.align	2
 129              	.L7:
 130 0028 28000000 		.word	.LC3
 131 002c 38000000 		.word	.LC4
 132              		.cfi_endproc
 133              	.LFE64:
 134              		.size	LCDvalue, .-LCDvalue
ARM GAS  C:\Users\monis\AppData\Local\Temp\ccYnYKe0.s 			page 4


 135              		.global	__aeabi_i2d
 136              		.global	__aeabi_ddiv
 137              		.global	__aeabi_d2iz
 138              		.global	__aeabi_dmul
 139              		.global	__aeabi_dadd
 140              		.section	.text.main,"ax",%progbits
 141              		.align	2
 142              		.global	main
 143              		.thumb
 144              		.thumb_func
 145              		.type	main, %function
 146              	main:
 147              	.LFB65:
  38:main.c        ****         } 
  39:main.c        ****         return;
  40:main.c        **** }
  41:main.c        **** /////////////////////////////////////////
  42:main.c        **** //uint32 time = 1; // placeholder to prevent divide by zero
  43:main.c        **** int16 period = 0;
  44:main.c        **** #define COUNTER_TICK_RATE 10000 // 10 kHz //Counter_2 count pin clock setting
  45:main.c        **** #define COUNTSPERREVOFGEAR 300 //64 COUNTER PER REV X 18.75 GEAR RATIO / 4 PULSES OF ENCODER 
  46:main.c        **** #define SECONDS 60
  47:main.c        **** #define DEMO 4
  48:main.c        **** 
  49:main.c        **** /*******************************************************************************/
  50:main.c        **** //////////////////////////////////////////////////////////////////////////////////
  51:main.c        **** int main(void)
  52:main.c        **** {
 148              		.loc 1 52 0
 149              		.cfi_startproc
 150              		@ args = 0, pretend = 0, frame = 0
 151              		@ frame_needed = 0, uses_anonymous_args = 0
 152 0000 2DE9F84F 		push	{r3, r4, r5, r6, r7, r8, r9, r10, fp, lr}
 153              		.cfi_def_cfa_offset 40
 154              		.cfi_offset 3, -40
 155              		.cfi_offset 4, -36
 156              		.cfi_offset 5, -32
 157              		.cfi_offset 6, -28
 158              		.cfi_offset 7, -24
 159              		.cfi_offset 8, -20
 160              		.cfi_offset 9, -16
 161              		.cfi_offset 10, -12
 162              		.cfi_offset 11, -8
 163              		.cfi_offset 14, -4
 164              	.LVL17:
  53:main.c        ****    // CyGlobalIntEnable; /* Enable global interrupts. */
  54:main.c        **** 
  55:main.c        ****     uint8 ADC_Count_Output = 0;
  56:main.c        ****     uint8 ADC_2_Count_Output=0,ADC_2_Count_Output_1=0,ADC_2_Count_Output_2=0,ADC_2_Count_Output_3=0
  57:main.c        ****     int16 quadcountnew = 0;
  58:main.c        ****     int16 quadcount = 0;
  59:main.c        ****     int16 quadcountprevious = 0;    
  60:main.c        ****     int32 loop = 0;
  61:main.c        ****     int16 time = 180;  //mS - time to toggle pin P0_0 - the duration of the for loop - from the sco
  62:main.c        ****     int16 rpm = 0;
  63:main.c        ****     int16 average = 0;
  64:main.c        ****     int16 emfrpm = 0;
ARM GAS  C:\Users\monis\AppData\Local\Temp\ccYnYKe0.s 			page 5


  65:main.c        ****    
  66:main.c        **** 
  67:main.c        ****     
  68:main.c        ****     LCD_Char_1_Start();
 165              		.loc 1 68 0
 166 0004 FFF7FEFF 		bl	LCD_Char_1_Start
 167              	.LVL18:
  69:main.c        ****     LCD();
 168              		.loc 1 69 0
 169 0008 FFF7FEFF 		bl	LCD
 170              	.LVL19:
  70:main.c        ****     CyDelay(1000);     
 171              		.loc 1 70 0
 172 000c 4FF47A70 		mov	r0, #1000
 173 0010 FFF7FEFF 		bl	CyDelay
 174              	.LVL20:
  71:main.c        ****     LCD_Char_1_ClearDisplay();     
 175              		.loc 1 71 0
 176 0014 0120     		movs	r0, #1
 177 0016 FFF7FEFF 		bl	LCD_Char_1_WriteControl
 178              	.LVL21:
  72:main.c        ****     
  73:main.c        ****     ADC_SAR_1_Start();
 179              		.loc 1 73 0
 180 001a FFF7FEFF 		bl	ADC_SAR_1_Start
 181              	.LVL22:
  74:main.c        ****     ADC_SAR_1_StartConvert();  
 182              		.loc 1 74 0
 183 001e FFF7FEFF 		bl	ADC_SAR_1_StartConvert
 184              	.LVL23:
  75:main.c        **** 
  76:main.c        ****     Counter_1_Start(); //creates a pwm from pot
 185              		.loc 1 76 0
 186 0022 FFF7FEFF 		bl	Counter_1_Start
 187              	.LVL24:
  77:main.c        ****     QuadDec_1_Start();  //count encoder edges
 188              		.loc 1 77 0
 189 0026 FFF7FEFF 		bl	QuadDec_1_Start
 190              	.LVL25:
  78:main.c        ****     
  79:main.c        ****     ADC_SAR_2_Start();
 191              		.loc 1 79 0
 192 002a FFF7FEFF 		bl	ADC_SAR_2_Start
 193              	.LVL26:
  80:main.c        ****     ADC_SAR_2_StartConvert();  
 194              		.loc 1 80 0
 195 002e FFF7FEFF 		bl	ADC_SAR_2_StartConvert
 196              	.LVL27:
  60:main.c        ****     int16 time = 180;  //mS - time to toggle pin P0_0 - the duration of the for loop - from the sco
 197              		.loc 1 60 0
 198 0032 0025     		movs	r5, #0
  59:main.c        ****     int32 loop = 0;
 199              		.loc 1 59 0
 200 0034 2E46     		mov	r6, r5
  56:main.c        ****     int16 quadcountnew = 0;
 201              		.loc 1 56 0
 202 0036 A946     		mov	r9, r5
ARM GAS  C:\Users\monis\AppData\Local\Temp\ccYnYKe0.s 			page 6


 203 0038 A846     		mov	r8, r5
 204 003a 2F46     		mov	r7, r5
 205 003c AA46     		mov	r10, r5
 206              	.LVL28:
 207              	.L10:
  81:main.c        ****     
  82:main.c        ****     /* Place your initialization/startup code here (e.g. MyInst_Start()) */
  83:main.c        **** 
  84:main.c        ****     for(;;)
  85:main.c        ****     {   
  86:main.c        ****       loop++;
 208              		.loc 1 86 0
 209 003e 0135     		adds	r5, r5, #1
 210              	.LVL29:
  87:main.c        ****  
  88:main.c        ****         
  89:main.c        ****        // STEP 2 - reading the Pot and creating a PWM with a counter 
  90:main.c        ****            ADC_Count_Output = ADC_SAR_1_GetResult8(); //returns the counts 0-255 based on a potenti
 211              		.loc 1 90 0
 212 0040 FFF7FEFF 		bl	ADC_SAR_1_GetResult8
 213              	.LVL30:
  91:main.c        ****        //  LCDvalue(ADC_Count_Output);
  92:main.c        ****            Counter_1_WriteCompare(ADC_Count_Output); //creates a PWM signal comparing a counter clo
 214              		.loc 1 92 0
 215 0044 C0B2     		uxtb	r0, r0
 216 0046 FFF7FEFF 		bl	Counter_1_WriteCompare
 217              	.LVL31:
  93:main.c        ****         
  94:main.c        ****        // STEP 3 - Speed measurement by encoder
  95:main.c        ****        // motor pins green - vssd, blue - vddd, yellow - A P0_1, white - B P0-2
  96:main.c        ****        // method 2 - read the time between rising edges
  97:main.c        **** 
  98:main.c        ****  
  99:main.c        ****         if (loop % 100000 == 0) 
 218              		.loc 1 99 0
 219 004a 414C     		ldr	r4, .L14+24
 220 004c 84FB0523 		smull	r2, r3, r4, r5
 221 0050 EC17     		asrs	r4, r5, #31
 222 0052 C4EB6334 		rsb	r4, r4, r3, asr #13
 223 0056 3F4B     		ldr	r3, .L14+28
 224 0058 03FB1454 		mls	r4, r3, r4, r5
 225 005c 3CBB     		cbnz	r4, .L11
 100:main.c        ****         {        
 101:main.c        ****           quadcountnew = QuadDec_1_GetCounter();//returned the edges counted - about 304 per revolu
 226              		.loc 1 101 0
 227 005e FFF7FEFF 		bl	QuadDec_1_GetCounter
 228              	.LVL32:
 229 0062 8346     		mov	fp, r0
 230              	.LVL33:
 102:main.c        ****        /*   if(quadcountnew < 0)          
 103:main.c        ****           {
 104:main.c        ****             quadcountnew *= -1;
 105:main.c        ****           }   
 106:main.c        ****         */
 107:main.c        ****             quadcount = quadcountnew - quadcountprevious;//calculate RPM
 231              		.loc 1 107 0
 232 0064 861B     		subs	r6, r0, r6
ARM GAS  C:\Users\monis\AppData\Local\Temp\ccYnYKe0.s 			page 7


 233              	.LVL34:
 234 0066 36B2     		sxth	r6, r6
 235              	.LVL35:
 108:main.c        ****             rpm = (quadcount * 1000 * 60 )/ (300.0 * time) ;    //304 = counts per rev. of gear sha
 236              		.loc 1 108 0
 237 0068 4EF66020 		movw	r0, #60000
 238              	.LVL36:
 239 006c 00FB06F0 		mul	r0, r0, r6
 240 0070 FFF7FEFF 		bl	__aeabi_i2d
 241              	.LVL37:
 242 0074 30A3     		adr	r3, .L14
 243 0076 D3E90023 		ldrd	r2, [r3]
 244 007a FFF7FEFF 		bl	__aeabi_ddiv
 245              	.LVL38:
 246 007e FFF7FEFF 		bl	__aeabi_d2iz
 247              	.LVL39:
 248 0082 06B2     		sxth	r6, r0
 249              	.LVL40:
 109:main.c        ****         
 110:main.c        ****             Pin_0_0_Write( ~ Pin_0_0_Read() ); //toggle pin to get time from scope            
 250              		.loc 1 110 0
 251 0084 FFF7FEFF 		bl	Pin_0_0_Read
 252              	.LVL41:
 253 0088 C043     		mvns	r0, r0
 254 008a C0B2     		uxtb	r0, r0
 255 008c FFF7FEFF 		bl	Pin_0_0_Write
 256              	.LVL42:
 111:main.c        ****             
 112:main.c        ****         LCD_Char_1_Position(0,0);
 257              		.loc 1 112 0
 258 0090 0021     		movs	r1, #0
 259 0092 0846     		mov	r0, r1
 260 0094 FFF7FEFF 		bl	LCD_Char_1_Position
 261              	.LVL43:
 113:main.c        ****         LCD_Char_1_PrintString("Shaftrpm:            ");     
 262              		.loc 1 113 0
 263 0098 2F48     		ldr	r0, .L14+32
 264 009a FFF7FEFF 		bl	LCD_Char_1_PrintString
 265              	.LVL44:
 114:main.c        ****         LCD_Char_1_Position(0,9);        
 266              		.loc 1 114 0
 267 009e 0921     		movs	r1, #9
 268 00a0 0020     		movs	r0, #0
 269 00a2 FFF7FEFF 		bl	LCD_Char_1_Position
 270              	.LVL45:
 115:main.c        ****         LCD_Char_1_PrintU32Number(rpm);
 271              		.loc 1 115 0
 272 00a6 3046     		mov	r0, r6
 273 00a8 FFF7FEFF 		bl	LCD_Char_1_PrintU32Number
 274              	.LVL46:
 116:main.c        ****      
 117:main.c        ****     /*     
 118:main.c        ****         LCD_Char_1_Position(1,0);
 119:main.c        ****         LCD_Char_1_PrintString("quadcount:      ");     
 120:main.c        ****         LCD_Char_1_Position(1,10);        
 121:main.c        ****         LCD_Char_1_PrintU32Number(quadcount); 
 122:main.c        **** */
ARM GAS  C:\Users\monis\AppData\Local\Temp\ccYnYKe0.s 			page 8


 123:main.c        ****         quadcountprevious = quadcountnew;
 275              		.loc 1 123 0
 276 00ac 5E46     		mov	r6, fp
 277              	.LVL47:
 278              	.L11:
 124:main.c        ****         }
 125:main.c        **** 
 126:main.c        ****         //Step 4 - Speed measurement by Back-EMF
 127:main.c        ****         //briefly interrupt the PWM switching on a periodic basis so that you can measure the Back-
 128:main.c        ****       
 129:main.c        ****         if (loop % 100000 == 0) 
 279              		.loc 1 129 0
 280 00ae 002C     		cmp	r4, #0
 281 00b0 C5D1     		bne	.L10
 130:main.c        ****         {           
 131:main.c        ****          Pin_3_0_Write (~ Pin_3_0_Read() ); //toggle pin
 282              		.loc 1 131 0
 283 00b2 FFF7FEFF 		bl	Pin_3_0_Read
 284              	.LVL48:
 285 00b6 C043     		mvns	r0, r0
 286 00b8 C0B2     		uxtb	r0, r0
 287 00ba FFF7FEFF 		bl	Pin_3_0_Write
 288              	.LVL49:
 132:main.c        ****         Counter_1_WriteCompare(0); //interrupt the pwm for
 289              		.loc 1 132 0
 290 00be 0020     		movs	r0, #0
 291 00c0 FFF7FEFF 		bl	Counter_1_WriteCompare
 292              	.LVL50:
 133:main.c        ****         CyDelayUs(1200);  //the longer the delay, the more pulsing we see on the scope on the drain
 293              		.loc 1 133 0
 294 00c4 4FF49660 		mov	r0, #1200
 295 00c8 FFF7FEFF 		bl	CyDelayUs
 296              	.LVL51:
 134:main.c        ****         //Convert the measured voltage to rpm and display the result on the LCD 
 135:main.c        ****         ADC_2_Count_Output = ADC_SAR_2_GetResult8();
 297              		.loc 1 135 0
 298 00cc FFF7FEFF 		bl	ADC_SAR_2_GetResult8
 299              	.LVL52:
 300 00d0 C0B2     		uxtb	r0, r0
 301              	.LVL53:
 136:main.c        ****         ADC_2_Count_Output_5 = 255 - ADC_2_Count_Output;   
 302              		.loc 1 136 0
 303 00d2 C043     		mvns	r0, r0
 304              	.LVL54:
 305 00d4 C0B2     		uxtb	r0, r0
 306              	.LVL55:
 137:main.c        ****         
 138:main.c        ****         average =(ADC_2_Count_Output_5+ADC_2_Count_Output_4+ADC_2_Count_Output_3+ADC_2_Count_Output
 307              		.loc 1 138 0
 308 00d6 4844     		add	r0, r0, r9
 309              	.LVL56:
 310 00d8 4044     		add	r0, r0, r8
 311 00da 3844     		add	r0, r0, r7
 312 00dc 5044     		add	r0, r0, r10
 313 00de FFF7FEFF 		bl	__aeabi_i2d
 314              	.LVL57:
 315 00e2 0022     		movs	r2, #0
ARM GAS  C:\Users\monis\AppData\Local\Temp\ccYnYKe0.s 			page 9


 316 00e4 1D4B     		ldr	r3, .L14+36
 317 00e6 FFF7FEFF 		bl	__aeabi_ddiv
 318              	.LVL58:
 319 00ea FFF7FEFF 		bl	__aeabi_d2iz
 320              	.LVL59:
 321 00ee 00B2     		sxth	r0, r0
 322              	.LVL60:
 139:main.c        ****         ADC_2_Count_Output_1=ADC_2_Count_Output_2;
 140:main.c        ****         ADC_2_Count_Output_2=ADC_2_Count_Output_3;
 141:main.c        ****         ADC_2_Count_Output_3=ADC_2_Count_Output_4;
 142:main.c        ****         ADC_2_Count_Output_4=average;
 323              		.loc 1 142 0
 324 00f0 C4B2     		uxtb	r4, r0
 325              	.LVL61:
 143:main.c        ****   /*      
 144:main.c        ****         LCD_Char_1_Position(1,0);
 145:main.c        ****         LCD_Char_1_PrintString("emf:            ");     
 146:main.c        ****         LCD_Char_1_Position(1,4);        
 147:main.c        ****         LCD_Char_1_PrintU32Number(average);   
 148:main.c        ****    */    
 149:main.c        ****         //calculate RPM from EMF voltage
 150:main.c        ****         //y=0.9528x +12.61
 151:main.c        ****         emfrpm = (0.9528 * average) + 12.61;
 326              		.loc 1 151 0
 327 00f2 FFF7FEFF 		bl	__aeabi_i2d
 328              	.LVL62:
 329 00f6 12A3     		adr	r3, .L14+8
 330 00f8 D3E90023 		ldrd	r2, [r3]
 331 00fc FFF7FEFF 		bl	__aeabi_dmul
 332              	.LVL63:
 333 0100 11A3     		adr	r3, .L14+16
 334 0102 D3E90023 		ldrd	r2, [r3]
 335 0106 FFF7FEFF 		bl	__aeabi_dadd
 336              	.LVL64:
 337 010a FFF7FEFF 		bl	__aeabi_d2iz
 338              	.LVL65:
 339 010e 0FFA80FA 		sxth	r10, r0
 340              	.LVL66:
 152:main.c        ****         
 153:main.c        ****        
 154:main.c        ****         LCD_Char_1_Position(1,0);
 341              		.loc 1 154 0
 342 0112 0021     		movs	r1, #0
 343 0114 0120     		movs	r0, #1
 344 0116 FFF7FEFF 		bl	LCD_Char_1_Position
 345              	.LVL67:
 155:main.c        ****         LCD_Char_1_PrintString("EmfRpm:            ");     
 346              		.loc 1 155 0
 347 011a 1148     		ldr	r0, .L14+40
 348 011c FFF7FEFF 		bl	LCD_Char_1_PrintString
 349              	.LVL68:
 156:main.c        ****         LCD_Char_1_Position(1,7);        
 350              		.loc 1 156 0
 351 0120 0721     		movs	r1, #7
 352 0122 0120     		movs	r0, #1
 353 0124 FFF7FEFF 		bl	LCD_Char_1_Position
 354              	.LVL69:
ARM GAS  C:\Users\monis\AppData\Local\Temp\ccYnYKe0.s 			page 10


 157:main.c        ****         LCD_Char_1_PrintU32Number(emfrpm);   
 355              		.loc 1 157 0
 356 0128 5046     		mov	r0, r10
 357 012a FFF7FEFF 		bl	LCD_Char_1_PrintU32Number
 358              	.LVL70:
 139:main.c        ****         ADC_2_Count_Output_2=ADC_2_Count_Output_3;
 359              		.loc 1 139 0
 360 012e BA46     		mov	r10, r7
 361              	.LVL71:
 140:main.c        ****         ADC_2_Count_Output_3=ADC_2_Count_Output_4;
 362              		.loc 1 140 0
 363 0130 4746     		mov	r7, r8
 364              	.LVL72:
 141:main.c        ****         ADC_2_Count_Output_4=average;
 365              		.loc 1 141 0
 366 0132 C846     		mov	r8, r9
 367              	.LVL73:
 142:main.c        ****   /*      
 368              		.loc 1 142 0
 369 0134 A146     		mov	r9, r4
 370              	.LVL74:
 371 0136 82E7     		b	.L10
 372              	.L15:
 373              		.align	3
 374              	.L14:
 375 0138 00000000 		.word	0
 376 013c 005EEA40 		.word	1089101312
 377 0140 211FF46C 		.word	1827938081
 378 0144 567DEE3F 		.word	1072594262
 379 0148 B81E85EB 		.word	-343597384
 380 014c 51382940 		.word	1076443217
 381 0150 89B5F814 		.word	351843721
 382 0154 A0860100 		.word	100000
 383 0158 40000000 		.word	.LC5
 384 015c 00001440 		.word	1075052544
 385 0160 58000000 		.word	.LC6
 386              		.cfi_endproc
 387              	.LFE65:
 388              		.size	main, .-main
 389              		.global	period
 390              		.section	.rodata.str1.4,"aMS",%progbits,1
 391              		.align	2
 392              	.LC0:
 393 0000 20202020 		.ascii	"                \000"
 393      20202020 
 393      20202020 
 393      20202020 
 393      00
 394 0011 000000   		.space	3
 395              	.LC1:
 396 0014 4443204D 		.ascii	"DC MOTOR\000"
 396      4F544F52 
 396      00
 397 001d 000000   		.space	3
 398              	.LC2:
 399 0020 4C414234 		.ascii	"LAB4\000"
 399      00
ARM GAS  C:\Users\monis\AppData\Local\Temp\ccYnYKe0.s 			page 11


 400 0025 000000   		.space	3
 401              	.LC3:
 402 0028 20202020 		.ascii	"               \000"
 402      20202020 
 402      20202020 
 402      20202000 
 403              	.LC4:
 404 0038 50574D3D 		.ascii	"PWM=\000"
 404      00
 405 003d 000000   		.space	3
 406              	.LC5:
 407 0040 53686166 		.ascii	"Shaftrpm:            \000"
 407      7472706D 
 407      3A202020 
 407      20202020 
 407      20202020 
 408 0056 0000     		.space	2
 409              	.LC6:
 410 0058 456D6652 		.ascii	"EmfRpm:            \000"
 410      706D3A20 
 410      20202020 
 410      20202020 
 410      20202000 
 411              		.bss
 412              		.align	1
 413              		.type	period, %object
 414              		.size	period, 2
 415              	period:
 416 0000 0000     		.space	2
 417              		.text
 418              	.Letext0:
 419              		.file 2 "c:\\program files (x86)\\cypress\\psoc creator\\4.1\\psoc creator\\import\\gnu\\arm\\5.4.
 420              		.file 3 "c:\\program files (x86)\\cypress\\psoc creator\\4.1\\psoc creator\\import\\gnu\\arm\\5.4.
 421              		.file 4 "Generated_Source\\PSoC5/cytypes.h"
 422              		.file 5 "Generated_Source\\PSoC5/core_cm3.h"
 423              		.file 6 "Generated_Source\\PSoC5/LCD_Char_1.h"
 424              		.file 7 "Generated_Source\\PSoC5/CyLib.h"
 425              		.file 8 "Generated_Source\\PSoC5/ADC_SAR_1.h"
 426              		.file 9 "Generated_Source\\PSoC5/Counter_1.h"
 427              		.file 10 "Generated_Source\\PSoC5/QuadDec_1.h"
 428              		.file 11 "Generated_Source\\PSoC5/ADC_SAR_2.h"
 429              		.file 12 "Generated_Source\\PSoC5/Pin_0_0.h"
 430              		.file 13 "Generated_Source\\PSoC5/Pin_3_0.h"