ARM GAS  C:\Users\monis\AppData\Local\Temp\ccAw9qWf.s 			page 1


   1              		.syntax unified
   2              		.cpu cortex-m3
   3              		.fpu softvfp
   4              		.eabi_attribute 20, 1
   5              		.eabi_attribute 21, 1
   6              		.eabi_attribute 23, 3
   7              		.eabi_attribute 24, 1
   8              		.eabi_attribute 25, 1
   9              		.eabi_attribute 26, 1
  10              		.eabi_attribute 30, 1
  11              		.eabi_attribute 34, 1
  12              		.eabi_attribute 18, 4
  13              		.thumb
  14              		.syntax unified
  15              		.file	"DFB_1.c"
  16              		.text
  17              	.Ltext0:
  18              		.cfi_sections	.debug_frame
  19              		.section	.text.DFB_1_LoadReg32,"ax",%progbits
  20              		.align	2
  21              		.thumb
  22              		.thumb_func
  23              		.type	DFB_1_LoadReg32, %function
  24              	DFB_1_LoadReg32:
  25              	.LFB0:
  26              		.file 1 "Generated_Source\\PSoC5\\DFB_1.c"
   1:Generated_Source\PSoC5/DFB_1.c **** /*******************************************************************************
   2:Generated_Source\PSoC5/DFB_1.c **** * File Name: DFB_1.c
   3:Generated_Source\PSoC5/DFB_1.c **** * Version 1.40
   4:Generated_Source\PSoC5/DFB_1.c **** *
   5:Generated_Source\PSoC5/DFB_1.c **** * Description:
   6:Generated_Source\PSoC5/DFB_1.c **** *  This file provides the API source code for the DFB component.
   7:Generated_Source\PSoC5/DFB_1.c **** *
   8:Generated_Source\PSoC5/DFB_1.c **** * Note:
   9:Generated_Source\PSoC5/DFB_1.c **** *  None
  10:Generated_Source\PSoC5/DFB_1.c **** *
  11:Generated_Source\PSoC5/DFB_1.c **** ********************************************************************************
  12:Generated_Source\PSoC5/DFB_1.c **** * Copyright 2011-2015, Cypress Semiconductor Corporation.  All rights reserved.
  13:Generated_Source\PSoC5/DFB_1.c **** * You may use this file only in accordance with the license, terms, conditions,
  14:Generated_Source\PSoC5/DFB_1.c **** * disclaimers, and limitations in the end user license agreement accompanying
  15:Generated_Source\PSoC5/DFB_1.c **** * the software package with which this file was provided.
  16:Generated_Source\PSoC5/DFB_1.c **** *******************************************************************************/
  17:Generated_Source\PSoC5/DFB_1.c **** 
  18:Generated_Source\PSoC5/DFB_1.c **** #include "DFB_1.h"
  19:Generated_Source\PSoC5/DFB_1.c **** 
  20:Generated_Source\PSoC5/DFB_1.c **** static void DFB_1_LoadReg32(reg32 regAddress[], const uint32 source[], uint8 count);
  21:Generated_Source\PSoC5/DFB_1.c **** static void DFB_1_ZeroReg32(reg32 regAddress[], uint8 count);
  22:Generated_Source\PSoC5/DFB_1.c **** 
  23:Generated_Source\PSoC5/DFB_1.c **** uint8 DFB_1_initVar = 0u;
  24:Generated_Source\PSoC5/DFB_1.c **** 
  25:Generated_Source\PSoC5/DFB_1.c **** 
  26:Generated_Source\PSoC5/DFB_1.c **** /*******************************************************************************
  27:Generated_Source\PSoC5/DFB_1.c **** * Function Name: DFB_1_LoadReg32
  28:Generated_Source\PSoC5/DFB_1.c **** ********************************************************************************
  29:Generated_Source\PSoC5/DFB_1.c **** * 
  30:Generated_Source\PSoC5/DFB_1.c **** * Summary:
  31:Generated_Source\PSoC5/DFB_1.c **** *  This function loads initial values/data to appropriate registers.
ARM GAS  C:\Users\monis\AppData\Local\Temp\ccAw9qWf.s 			page 2


  32:Generated_Source\PSoC5/DFB_1.c **** *
  33:Generated_Source\PSoC5/DFB_1.c **** * Parameters:
  34:Generated_Source\PSoC5/DFB_1.c **** *  reg32 regAddress[]: register address;
  35:Generated_Source\PSoC5/DFB_1.c **** *  const uint32 source[]: data for load;
  36:Generated_Source\PSoC5/DFB_1.c **** *  uint8 count: number of 32-bit registers for load.
  37:Generated_Source\PSoC5/DFB_1.c **** *
  38:Generated_Source\PSoC5/DFB_1.c **** * Return:
  39:Generated_Source\PSoC5/DFB_1.c **** *  None.
  40:Generated_Source\PSoC5/DFB_1.c **** *
  41:Generated_Source\PSoC5/DFB_1.c **** * Note:
  42:Generated_Source\PSoC5/DFB_1.c **** *  Data loads starts from "regAddress" address and affects on "count" numbers of
  43:Generated_Source\PSoC5/DFB_1.c **** *  successive registers.
  44:Generated_Source\PSoC5/DFB_1.c **** *
  45:Generated_Source\PSoC5/DFB_1.c **** *******************************************************************************/
  46:Generated_Source\PSoC5/DFB_1.c **** static void DFB_1_LoadReg32(reg32 regAddress[], const uint32 source[], uint8 count)
  47:Generated_Source\PSoC5/DFB_1.c **** {
  27              		.loc 1 47 0
  28              		.cfi_startproc
  29              		@ args = 0, pretend = 0, frame = 0
  30              		@ frame_needed = 0, uses_anonymous_args = 0
  31              		@ link register save eliminated.
  32              	.LVL0:
  33 0000 10B4     		push	{r4}
  34              		.cfi_def_cfa_offset 4
  35              		.cfi_offset 4, -4
  36              	.LVL1:
  48:Generated_Source\PSoC5/DFB_1.c ****     uint8 i = 0u;
  37              		.loc 1 48 0
  38 0002 0023     		movs	r3, #0
  49:Generated_Source\PSoC5/DFB_1.c ****     
  50:Generated_Source\PSoC5/DFB_1.c ****     while (count > 0u)
  39              		.loc 1 50 0
  40 0004 07E0     		b	.L2
  41              	.LVL2:
  42              	.L3:
  51:Generated_Source\PSoC5/DFB_1.c ****     {
  52:Generated_Source\PSoC5/DFB_1.c ****         CY_SET_REG32(& regAddress[i], source[i]);
  43              		.loc 1 52 0
  44 0006 51F82340 		ldr	r4, [r1, r3, lsl #2]
  45 000a 40F82340 		str	r4, [r0, r3, lsl #2]
  53:Generated_Source\PSoC5/DFB_1.c ****         count--;
  46              		.loc 1 53 0
  47 000e 013A     		subs	r2, r2, #1
  48              	.LVL3:
  49 0010 D2B2     		uxtb	r2, r2
  50              	.LVL4:
  54:Generated_Source\PSoC5/DFB_1.c ****         i++;
  51              		.loc 1 54 0
  52 0012 0133     		adds	r3, r3, #1
  53              	.LVL5:
  54 0014 DBB2     		uxtb	r3, r3
  55              	.LVL6:
  56              	.L2:
  50:Generated_Source\PSoC5/DFB_1.c ****     {
  57              		.loc 1 50 0
  58 0016 002A     		cmp	r2, #0
  59 0018 F5D1     		bne	.L3
ARM GAS  C:\Users\monis\AppData\Local\Temp\ccAw9qWf.s 			page 3


  55:Generated_Source\PSoC5/DFB_1.c ****     }
  56:Generated_Source\PSoC5/DFB_1.c **** }
  60              		.loc 1 56 0
  61 001a 10BC     		pop	{r4}
  62              		.cfi_restore 4
  63              		.cfi_def_cfa_offset 0
  64 001c 7047     		bx	lr
  65              		.cfi_endproc
  66              	.LFE0:
  67              		.size	DFB_1_LoadReg32, .-DFB_1_LoadReg32
  68 001e 00BF     		.section	.text.DFB_1_ZeroReg32,"ax",%progbits
  69              		.align	2
  70              		.thumb
  71              		.thumb_func
  72              		.type	DFB_1_ZeroReg32, %function
  73              	DFB_1_ZeroReg32:
  74              	.LFB1:
  57:Generated_Source\PSoC5/DFB_1.c **** 
  58:Generated_Source\PSoC5/DFB_1.c **** 
  59:Generated_Source\PSoC5/DFB_1.c **** /*******************************************************************************
  60:Generated_Source\PSoC5/DFB_1.c **** * Function Name: DFB_1_ZeroReg32
  61:Generated_Source\PSoC5/DFB_1.c **** ********************************************************************************
  62:Generated_Source\PSoC5/DFB_1.c **** * 
  63:Generated_Source\PSoC5/DFB_1.c **** * Summary:
  64:Generated_Source\PSoC5/DFB_1.c **** *  This function zeroize registers.
  65:Generated_Source\PSoC5/DFB_1.c **** *
  66:Generated_Source\PSoC5/DFB_1.c **** * Parameters:
  67:Generated_Source\PSoC5/DFB_1.c **** *  reg32 regAddress[]: register address;
  68:Generated_Source\PSoC5/DFB_1.c **** *  uint8 count: number of 32-bit registers for zeroing.
  69:Generated_Source\PSoC5/DFB_1.c **** *
  70:Generated_Source\PSoC5/DFB_1.c **** * Return:
  71:Generated_Source\PSoC5/DFB_1.c **** *  None.
  72:Generated_Source\PSoC5/DFB_1.c **** *
  73:Generated_Source\PSoC5/DFB_1.c **** * Note:
  74:Generated_Source\PSoC5/DFB_1.c **** *  Zeroing starts from "regAddress" address and affects on "count" numbers of
  75:Generated_Source\PSoC5/DFB_1.c **** *  successive registers.
  76:Generated_Source\PSoC5/DFB_1.c **** *
  77:Generated_Source\PSoC5/DFB_1.c **** *******************************************************************************/
  78:Generated_Source\PSoC5/DFB_1.c **** static void DFB_1_ZeroReg32(reg32 regAddress[], uint8 count)
  79:Generated_Source\PSoC5/DFB_1.c **** {
  75              		.loc 1 79 0
  76              		.cfi_startproc
  77              		@ args = 0, pretend = 0, frame = 0
  78              		@ frame_needed = 0, uses_anonymous_args = 0
  79              		@ link register save eliminated.
  80              	.LVL7:
  80:Generated_Source\PSoC5/DFB_1.c ****     uint8 i = 0u;
  81              		.loc 1 80 0
  82 0000 0023     		movs	r3, #0
  81:Generated_Source\PSoC5/DFB_1.c ****     
  82:Generated_Source\PSoC5/DFB_1.c ****     while (count > 0u)
  83              		.loc 1 82 0
  84 0002 06E0     		b	.L6
  85              	.LVL8:
  86              	.L7:
  83:Generated_Source\PSoC5/DFB_1.c ****     {
  84:Generated_Source\PSoC5/DFB_1.c ****         CY_SET_REG32(& regAddress[i], 0u);
ARM GAS  C:\Users\monis\AppData\Local\Temp\ccAw9qWf.s 			page 4


  87              		.loc 1 84 0
  88 0004 0022     		movs	r2, #0
  89 0006 40F82320 		str	r2, [r0, r3, lsl #2]
  85:Generated_Source\PSoC5/DFB_1.c ****         count--;
  90              		.loc 1 85 0
  91 000a 0139     		subs	r1, r1, #1
  92              	.LVL9:
  93 000c C9B2     		uxtb	r1, r1
  94              	.LVL10:
  86:Generated_Source\PSoC5/DFB_1.c ****         i++;
  95              		.loc 1 86 0
  96 000e 0133     		adds	r3, r3, #1
  97              	.LVL11:
  98 0010 DBB2     		uxtb	r3, r3
  99              	.LVL12:
 100              	.L6:
  82:Generated_Source\PSoC5/DFB_1.c ****     {
 101              		.loc 1 82 0
 102 0012 0029     		cmp	r1, #0
 103 0014 F6D1     		bne	.L7
  87:Generated_Source\PSoC5/DFB_1.c ****     }
  88:Generated_Source\PSoC5/DFB_1.c **** }
 104              		.loc 1 88 0
 105 0016 7047     		bx	lr
 106              		.cfi_endproc
 107              	.LFE1:
 108              		.size	DFB_1_ZeroReg32, .-DFB_1_ZeroReg32
 109              		.section	.text.DFB_1_Enable,"ax",%progbits
 110              		.align	2
 111              		.global	DFB_1_Enable
 112              		.thumb
 113              		.thumb_func
 114              		.type	DFB_1_Enable, %function
 115              	DFB_1_Enable:
 116              	.LFB3:
  89:Generated_Source\PSoC5/DFB_1.c **** 
  90:Generated_Source\PSoC5/DFB_1.c **** 
  91:Generated_Source\PSoC5/DFB_1.c **** /*******************************************************************************
  92:Generated_Source\PSoC5/DFB_1.c **** * Function Name: DFB_1_Init
  93:Generated_Source\PSoC5/DFB_1.c **** ********************************************************************************
  94:Generated_Source\PSoC5/DFB_1.c **** * 
  95:Generated_Source\PSoC5/DFB_1.c **** * Summary:
  96:Generated_Source\PSoC5/DFB_1.c **** *  This function initializes or restores default the DFB component configuration
  97:Generated_Source\PSoC5/DFB_1.c **** *  provided with customizer:
  98:Generated_Source\PSoC5/DFB_1.c **** *   powers on DFB(PM_ACT_CFG), power on the RAM(DFB_RAM_EN),
  99:Generated_Source\PSoC5/DFB_1.c **** *   moves CSA/CSB/FSM/DataA/DataB/ACU data to the DFB ram using an 8051/ARM
 100:Generated_Source\PSoC5/DFB_1.c **** *   core,
 101:Generated_Source\PSoC5/DFB_1.c **** *   changes RAM DIR to DFB,
 102:Generated_Source\PSoC5/DFB_1.c **** *   sets interrupt mode,
 103:Generated_Source\PSoC5/DFB_1.c **** *   sets DMA mode,
 104:Generated_Source\PSoC5/DFB_1.c **** *   sets DSI outputs,
 105:Generated_Source\PSoC5/DFB_1.c **** *   clears all semaphore bits an pending interrupts.
 106:Generated_Source\PSoC5/DFB_1.c **** *
 107:Generated_Source\PSoC5/DFB_1.c **** * Parameters:
 108:Generated_Source\PSoC5/DFB_1.c **** *  None.
 109:Generated_Source\PSoC5/DFB_1.c **** *
 110:Generated_Source\PSoC5/DFB_1.c **** * Return:
ARM GAS  C:\Users\monis\AppData\Local\Temp\ccAw9qWf.s 			page 5


 111:Generated_Source\PSoC5/DFB_1.c **** *  None.
 112:Generated_Source\PSoC5/DFB_1.c **** *
 113:Generated_Source\PSoC5/DFB_1.c **** * Side Effects:
 114:Generated_Source\PSoC5/DFB_1.c **** *  All registers will be reset to their initial values. This will reinitializes
 115:Generated_Source\PSoC5/DFB_1.c **** *  the component. This function turns off Run bit and enables power to the DFB
 116:Generated_Source\PSoC5/DFB_1.c **** *  block.
 117:Generated_Source\PSoC5/DFB_1.c **** *  Program loading takes ~6 ms.
 118:Generated_Source\PSoC5/DFB_1.c **** *
 119:Generated_Source\PSoC5/DFB_1.c **** *******************************************************************************/
 120:Generated_Source\PSoC5/DFB_1.c **** void DFB_1_Init(void) 
 121:Generated_Source\PSoC5/DFB_1.c **** {
 122:Generated_Source\PSoC5/DFB_1.c ****     uint8 enableInterrupts;
 123:Generated_Source\PSoC5/DFB_1.c **** 
 124:Generated_Source\PSoC5/DFB_1.c ****     enableInterrupts = CyEnterCriticalSection();
 125:Generated_Source\PSoC5/DFB_1.c **** 
 126:Generated_Source\PSoC5/DFB_1.c ****     /* Powers on DFB block */
 127:Generated_Source\PSoC5/DFB_1.c ****     DFB_1_PM_ACT_CFG_REG |= DFB_1_PM_ACT_MSK;
 128:Generated_Source\PSoC5/DFB_1.c ****     /* Enables DFB block in Alternate Active (Standby) mode */
 129:Generated_Source\PSoC5/DFB_1.c ****     DFB_1_PM_STBY_CFG_REG |= DFB_1_PM_STBY_MSK;
 130:Generated_Source\PSoC5/DFB_1.c **** 
 131:Generated_Source\PSoC5/DFB_1.c ****     CyExitCriticalSection(enableInterrupts);
 132:Generated_Source\PSoC5/DFB_1.c **** 
 133:Generated_Source\PSoC5/DFB_1.c ****     /* Turns off Run Bit */
 134:Generated_Source\PSoC5/DFB_1.c ****     DFB_1_CR_REG &= (uint8) (~DFB_1_RUN_MASK);
 135:Generated_Source\PSoC5/DFB_1.c ****     /* Powers up the DFB RAMS */
 136:Generated_Source\PSoC5/DFB_1.c ****     DFB_1_RAM_EN_REG = DFB_1_RAM_DIR_BUS;
 137:Generated_Source\PSoC5/DFB_1.c ****     /* Puts DFB RAM on the bus */
 138:Generated_Source\PSoC5/DFB_1.c ****     DFB_1_RAM_DIR_REG = DFB_1_RAM_DIR_BUS;
 139:Generated_Source\PSoC5/DFB_1.c **** 
 140:Generated_Source\PSoC5/DFB_1.c ****     /* Clears all DFB RAM */
 141:Generated_Source\PSoC5/DFB_1.c ****     DFB_1_ZeroReg32(DFB_1_DA_RAM_PTR, DFB_1_DA_RAM_SIZE);
 142:Generated_Source\PSoC5/DFB_1.c ****     DFB_1_ZeroReg32(DFB_1_DB_RAM_PTR, DFB_1_DB_RAM_SIZE);
 143:Generated_Source\PSoC5/DFB_1.c ****     DFB_1_ZeroReg32(DFB_1_CSA_RAM_PTR, DFB_1_CSA_RAM_SIZE);
 144:Generated_Source\PSoC5/DFB_1.c ****     DFB_1_ZeroReg32(DFB_1_CSB_RAM_PTR, DFB_1_CSB_RAM_SIZE);
 145:Generated_Source\PSoC5/DFB_1.c ****     DFB_1_ZeroReg32(DFB_1_ACU_RAM_PTR, DFB_1_ACU_RAM_SIZE);
 146:Generated_Source\PSoC5/DFB_1.c ****     DFB_1_ZeroReg32(DFB_1_CFSM_RAM_PTR, DFB_1_CFSM_RAM_SIZE);
 147:Generated_Source\PSoC5/DFB_1.c **** 
 148:Generated_Source\PSoC5/DFB_1.c ****     /* Writes DFB RAMs */
 149:Generated_Source\PSoC5/DFB_1.c ****     /* Control Store RAMs */
 150:Generated_Source\PSoC5/DFB_1.c ****     #if (DFB_1_OPTIMIZE_ASSEMBLY)
 151:Generated_Source\PSoC5/DFB_1.c ****         DFB_1_LoadReg32(DFB_1_CSA_RAM_PTR, DFB_1_cstoreA,
 152:Generated_Source\PSoC5/DFB_1.c ****                                     DFB_1_CSA_RAM_SIZE_CUR);
 153:Generated_Source\PSoC5/DFB_1.c ****         DFB_1_LoadReg32(DFB_1_CSB_RAM_PTR, DFB_1_cstoreB,
 154:Generated_Source\PSoC5/DFB_1.c ****                                     DFB_1_CSB_RAM_SIZE_CUR);
 155:Generated_Source\PSoC5/DFB_1.c ****     #else
 156:Generated_Source\PSoC5/DFB_1.c ****         DFB_1_LoadReg32(DFB_1_CSA_RAM_PTR, DFB_1_control,
 157:Generated_Source\PSoC5/DFB_1.c ****                                     DFB_1_CSA_RAM_SIZE_CUR);
 158:Generated_Source\PSoC5/DFB_1.c ****         DFB_1_LoadReg32(DFB_1_CSB_RAM_PTR, DFB_1_control,
 159:Generated_Source\PSoC5/DFB_1.c ****                                     DFB_1_CSB_RAM_SIZE_CUR);
 160:Generated_Source\PSoC5/DFB_1.c ****     #endif /* DFB_1_OPTIMIZE_ASSEMBLY */
 161:Generated_Source\PSoC5/DFB_1.c **** 
 162:Generated_Source\PSoC5/DFB_1.c ****     /* Loads initial data to Data RAMs */
 163:Generated_Source\PSoC5/DFB_1.c ****     DFB_1_LoadReg32(DFB_1_DA_RAM_PTR, DFB_1_data_a, DFB_1_DA_RAM_SIZE_CUR);
 164:Generated_Source\PSoC5/DFB_1.c ****     DFB_1_LoadReg32(DFB_1_DB_RAM_PTR, DFB_1_data_b, DFB_1_DB_RAM_SIZE_CUR);
 165:Generated_Source\PSoC5/DFB_1.c ****     /* Loads initial data to ACU RAM */
 166:Generated_Source\PSoC5/DFB_1.c ****     DFB_1_LoadReg32(DFB_1_ACU_RAM_PTR, DFB_1_acu, DFB_1_ACU_RAM_SIZE_CUR);
 167:Generated_Source\PSoC5/DFB_1.c ****     /* Loads initial data to CFSM RAM */
ARM GAS  C:\Users\monis\AppData\Local\Temp\ccAw9qWf.s 			page 6


 168:Generated_Source\PSoC5/DFB_1.c ****     DFB_1_LoadReg32(DFB_1_CFSM_RAM_PTR, DFB_1_cfsm,
 169:Generated_Source\PSoC5/DFB_1.c ****                                 DFB_1_CFSM_RAM_SIZE_CUR);
 170:Generated_Source\PSoC5/DFB_1.c **** 
 171:Generated_Source\PSoC5/DFB_1.c ****     /* Takes DFB RAM off the bus */
 172:Generated_Source\PSoC5/DFB_1.c ****     DFB_1_RAM_DIR_REG = DFB_1_RAM_DIR_DFB;
 173:Generated_Source\PSoC5/DFB_1.c **** 
 174:Generated_Source\PSoC5/DFB_1.c ****     /* Sets up interrupt and DMA events */
 175:Generated_Source\PSoC5/DFB_1.c ****     DFB_1_SetInterruptMode(DFB_1_INIT_INTERRUPT_MODE);
 176:Generated_Source\PSoC5/DFB_1.c ****     DFB_1_SetDMAMode(DFB_1_INIT_DMA_MODE);
 177:Generated_Source\PSoC5/DFB_1.c **** 
 178:Generated_Source\PSoC5/DFB_1.c ****     /* Sets up internal signals, which will be mapped to the DSI outputs */
 179:Generated_Source\PSoC5/DFB_1.c ****     DFB_1_SetOutput1Source(DFB_1_INIT_OUT1_SOURCE);
 180:Generated_Source\PSoC5/DFB_1.c ****     DFB_1_SetOutput2Source(DFB_1_INIT_OUT2_SOURCE);
 181:Generated_Source\PSoC5/DFB_1.c **** 
 182:Generated_Source\PSoC5/DFB_1.c ****     /* Clears any pending interrupts and semaphore bits */
 183:Generated_Source\PSoC5/DFB_1.c ****     DFB_1_SR_REG = 0xFFu;
 184:Generated_Source\PSoC5/DFB_1.c **** }
 185:Generated_Source\PSoC5/DFB_1.c **** 
 186:Generated_Source\PSoC5/DFB_1.c **** 
 187:Generated_Source\PSoC5/DFB_1.c **** /*******************************************************************************
 188:Generated_Source\PSoC5/DFB_1.c **** * Function Name: DFB_1_Enable
 189:Generated_Source\PSoC5/DFB_1.c **** ********************************************************************************
 190:Generated_Source\PSoC5/DFB_1.c **** *
 191:Generated_Source\PSoC5/DFB_1.c **** * Summary:
 192:Generated_Source\PSoC5/DFB_1.c **** *  This function enables the DFB hardware block, sets the DFB run bit and powers
 193:Generated_Source\PSoC5/DFB_1.c **** *  on the DFB block.
 194:Generated_Source\PSoC5/DFB_1.c **** *
 195:Generated_Source\PSoC5/DFB_1.c **** * Parameters:
 196:Generated_Source\PSoC5/DFB_1.c **** *  None.
 197:Generated_Source\PSoC5/DFB_1.c **** *
 198:Generated_Source\PSoC5/DFB_1.c **** * Return:
 199:Generated_Source\PSoC5/DFB_1.c **** *  None.
 200:Generated_Source\PSoC5/DFB_1.c **** *
 201:Generated_Source\PSoC5/DFB_1.c **** *******************************************************************************/
 202:Generated_Source\PSoC5/DFB_1.c **** void DFB_1_Enable(void) 
 203:Generated_Source\PSoC5/DFB_1.c **** {
 117              		.loc 1 203 0
 118              		.cfi_startproc
 119              		@ args = 0, pretend = 0, frame = 0
 120              		@ frame_needed = 0, uses_anonymous_args = 0
 121 0000 08B5     		push	{r3, lr}
 122              		.cfi_def_cfa_offset 8
 123              		.cfi_offset 3, -8
 124              		.cfi_offset 14, -4
 204:Generated_Source\PSoC5/DFB_1.c ****     uint8 enableInterrupts;
 205:Generated_Source\PSoC5/DFB_1.c **** 
 206:Generated_Source\PSoC5/DFB_1.c ****     enableInterrupts = CyEnterCriticalSection();
 125              		.loc 1 206 0
 126 0002 FFF7FEFF 		bl	CyEnterCriticalSection
 127              	.LVL13:
 207:Generated_Source\PSoC5/DFB_1.c **** 
 208:Generated_Source\PSoC5/DFB_1.c ****     /* Powers on DFB block */
 209:Generated_Source\PSoC5/DFB_1.c ****     DFB_1_PM_ACT_CFG_REG |= DFB_1_PM_ACT_MSK;
 128              		.loc 1 209 0
 129 0006 0A4A     		ldr	r2, .L10
 130 0008 1378     		ldrb	r3, [r2]	@ zero_extendqisi2
 131 000a 43F01003 		orr	r3, r3, #16
ARM GAS  C:\Users\monis\AppData\Local\Temp\ccAw9qWf.s 			page 7


 132 000e 1370     		strb	r3, [r2]
 210:Generated_Source\PSoC5/DFB_1.c ****     /* Enables DFB block in Alternate Active (Standby) mode */
 211:Generated_Source\PSoC5/DFB_1.c ****     DFB_1_PM_STBY_CFG_REG |= DFB_1_PM_STBY_MSK;
 133              		.loc 1 211 0
 134 0010 1032     		adds	r2, r2, #16
 135 0012 1378     		ldrb	r3, [r2]	@ zero_extendqisi2
 136 0014 43F01003 		orr	r3, r3, #16
 137 0018 1370     		strb	r3, [r2]
 212:Generated_Source\PSoC5/DFB_1.c **** 
 213:Generated_Source\PSoC5/DFB_1.c ****     CyExitCriticalSection(enableInterrupts);
 138              		.loc 1 213 0
 139 001a FFF7FEFF 		bl	CyExitCriticalSection
 140              	.LVL14:
 214:Generated_Source\PSoC5/DFB_1.c ****     
 215:Generated_Source\PSoC5/DFB_1.c ****     /* Powers up the DFB RAMS */
 216:Generated_Source\PSoC5/DFB_1.c ****     DFB_1_RAM_EN_REG = DFB_1_RAM_DIR_BUS;
 141              		.loc 1 216 0
 142 001e 3F22     		movs	r2, #63
 143 0020 044B     		ldr	r3, .L10+4
 144 0022 1A70     		strb	r2, [r3]
 217:Generated_Source\PSoC5/DFB_1.c ****     /* Turns on Run Bit */
 218:Generated_Source\PSoC5/DFB_1.c ****     DFB_1_CR_REG |= DFB_1_RUN_MASK;
 145              		.loc 1 218 0
 146 0024 044A     		ldr	r2, .L10+8
 147 0026 1378     		ldrb	r3, [r2]	@ zero_extendqisi2
 148 0028 43F00103 		orr	r3, r3, #1
 149 002c 1370     		strb	r3, [r2]
 150 002e 08BD     		pop	{r3, pc}
 151              	.L11:
 152              		.align	2
 153              	.L10:
 154 0030 A6430040 		.word	1073759142
 155 0034 88C70040 		.word	1073792904
 156 0038 80C70040 		.word	1073792896
 157              		.cfi_endproc
 158              	.LFE3:
 159              		.size	DFB_1_Enable, .-DFB_1_Enable
 160              		.section	.text.DFB_1_Stop,"ax",%progbits
 161              		.align	2
 162              		.global	DFB_1_Stop
 163              		.thumb
 164              		.thumb_func
 165              		.type	DFB_1_Stop, %function
 166              	DFB_1_Stop:
 167              	.LFB5:
 219:Generated_Source\PSoC5/DFB_1.c **** }
 220:Generated_Source\PSoC5/DFB_1.c **** 
 221:Generated_Source\PSoC5/DFB_1.c **** 
 222:Generated_Source\PSoC5/DFB_1.c **** /*******************************************************************************
 223:Generated_Source\PSoC5/DFB_1.c **** * Function Name: DFB_1_Start
 224:Generated_Source\PSoC5/DFB_1.c **** ********************************************************************************
 225:Generated_Source\PSoC5/DFB_1.c **** *
 226:Generated_Source\PSoC5/DFB_1.c **** * Summary:
 227:Generated_Source\PSoC5/DFB_1.c **** *  This function initializes and enables the DFB component using the DFB_Init()
 228:Generated_Source\PSoC5/DFB_1.c **** *  and DFB_Enable() functions.
 229:Generated_Source\PSoC5/DFB_1.c **** *
 230:Generated_Source\PSoC5/DFB_1.c **** * Parameters:
ARM GAS  C:\Users\monis\AppData\Local\Temp\ccAw9qWf.s 			page 8


 231:Generated_Source\PSoC5/DFB_1.c **** *  None.
 232:Generated_Source\PSoC5/DFB_1.c **** *
 233:Generated_Source\PSoC5/DFB_1.c **** * Return:
 234:Generated_Source\PSoC5/DFB_1.c **** *  None.
 235:Generated_Source\PSoC5/DFB_1.c **** *
 236:Generated_Source\PSoC5/DFB_1.c **** * Global variables:
 237:Generated_Source\PSoC5/DFB_1.c **** *  DFB_1_initVar - used to check initial configuration, modified on
 238:Generated_Source\PSoC5/DFB_1.c **** *  first function call.
 239:Generated_Source\PSoC5/DFB_1.c **** *
 240:Generated_Source\PSoC5/DFB_1.c **** * Reentrant:
 241:Generated_Source\PSoC5/DFB_1.c **** *  No.
 242:Generated_Source\PSoC5/DFB_1.c **** *
 243:Generated_Source\PSoC5/DFB_1.c **** *******************************************************************************/
 244:Generated_Source\PSoC5/DFB_1.c **** void DFB_1_Start(void) 
 245:Generated_Source\PSoC5/DFB_1.c **** {
 246:Generated_Source\PSoC5/DFB_1.c ****     if (DFB_1_initVar == 0u)
 247:Generated_Source\PSoC5/DFB_1.c ****     {
 248:Generated_Source\PSoC5/DFB_1.c ****         DFB_1_Init();
 249:Generated_Source\PSoC5/DFB_1.c ****         DFB_1_initVar = 1u;
 250:Generated_Source\PSoC5/DFB_1.c ****     }
 251:Generated_Source\PSoC5/DFB_1.c **** 
 252:Generated_Source\PSoC5/DFB_1.c ****     DFB_1_Enable();
 253:Generated_Source\PSoC5/DFB_1.c **** }
 254:Generated_Source\PSoC5/DFB_1.c **** 
 255:Generated_Source\PSoC5/DFB_1.c **** 
 256:Generated_Source\PSoC5/DFB_1.c **** /*******************************************************************************
 257:Generated_Source\PSoC5/DFB_1.c **** * Function Name: DFB_1_Stop
 258:Generated_Source\PSoC5/DFB_1.c **** ********************************************************************************
 259:Generated_Source\PSoC5/DFB_1.c **** *
 260:Generated_Source\PSoC5/DFB_1.c **** * Summary:
 261:Generated_Source\PSoC5/DFB_1.c **** *  This function turns off the run bit. If DMA control is used to feed the
 262:Generated_Source\PSoC5/DFB_1.c **** *  channels, function allows arguments to turn off one of the TD channels off.
 263:Generated_Source\PSoC5/DFB_1.c **** *
 264:Generated_Source\PSoC5/DFB_1.c **** * Parameters:
 265:Generated_Source\PSoC5/DFB_1.c **** *  None.
 266:Generated_Source\PSoC5/DFB_1.c **** *
 267:Generated_Source\PSoC5/DFB_1.c **** * Return:
 268:Generated_Source\PSoC5/DFB_1.c **** *  None.
 269:Generated_Source\PSoC5/DFB_1.c **** *
 270:Generated_Source\PSoC5/DFB_1.c **** * Side Effects:
 271:Generated_Source\PSoC5/DFB_1.c **** *  Disables power to the DFB Core.
 272:Generated_Source\PSoC5/DFB_1.c **** *
 273:Generated_Source\PSoC5/DFB_1.c **** *******************************************************************************/
 274:Generated_Source\PSoC5/DFB_1.c **** void DFB_1_Stop(void) 
 275:Generated_Source\PSoC5/DFB_1.c **** {
 168              		.loc 1 275 0
 169              		.cfi_startproc
 170              		@ args = 0, pretend = 0, frame = 0
 171              		@ frame_needed = 0, uses_anonymous_args = 0
 172 0000 08B5     		push	{r3, lr}
 173              		.cfi_def_cfa_offset 8
 174              		.cfi_offset 3, -8
 175              		.cfi_offset 14, -4
 276:Generated_Source\PSoC5/DFB_1.c ****     uint8 enableInterrupts;
 277:Generated_Source\PSoC5/DFB_1.c **** 
 278:Generated_Source\PSoC5/DFB_1.c ****     enableInterrupts = CyEnterCriticalSection();
 176              		.loc 1 278 0
ARM GAS  C:\Users\monis\AppData\Local\Temp\ccAw9qWf.s 			page 9


 177 0002 FFF7FEFF 		bl	CyEnterCriticalSection
 178              	.LVL15:
 279:Generated_Source\PSoC5/DFB_1.c **** 
 280:Generated_Source\PSoC5/DFB_1.c ****     /* Turns off Run Bit */
 281:Generated_Source\PSoC5/DFB_1.c ****     DFB_1_CR_REG &= (uint8) (~DFB_1_RUN_MASK);
 179              		.loc 1 281 0
 180 0006 0A4A     		ldr	r2, .L14
 181 0008 1378     		ldrb	r3, [r2]	@ zero_extendqisi2
 182 000a 03F0FE03 		and	r3, r3, #254
 183 000e 1370     		strb	r3, [r2]
 282:Generated_Source\PSoC5/DFB_1.c ****     
 283:Generated_Source\PSoC5/DFB_1.c ****     /* Powers off DFB */
 284:Generated_Source\PSoC5/DFB_1.c ****     DFB_1_PM_ACT_CFG_REG &= (uint8) (~DFB_1_PM_ACT_MSK);
 184              		.loc 1 284 0
 185 0010 A2F50342 		sub	r2, r2, #33536
 186 0014 DA3A     		subs	r2, r2, #218
 187 0016 1378     		ldrb	r3, [r2]	@ zero_extendqisi2
 188 0018 03F0EF03 		and	r3, r3, #239
 189 001c 1370     		strb	r3, [r2]
 285:Generated_Source\PSoC5/DFB_1.c ****     /* Disables DFB block in Alternate Active (Standby) mode */
 286:Generated_Source\PSoC5/DFB_1.c ****     DFB_1_PM_STBY_CFG_REG &= (uint8) (~DFB_1_PM_STBY_MSK);
 190              		.loc 1 286 0
 191 001e 1032     		adds	r2, r2, #16
 192 0020 1378     		ldrb	r3, [r2]	@ zero_extendqisi2
 193 0022 03F0EF03 		and	r3, r3, #239
 194 0026 1370     		strb	r3, [r2]
 287:Generated_Source\PSoC5/DFB_1.c **** 
 288:Generated_Source\PSoC5/DFB_1.c ****     CyExitCriticalSection(enableInterrupts);
 195              		.loc 1 288 0
 196 0028 FFF7FEFF 		bl	CyExitCriticalSection
 197              	.LVL16:
 198 002c 08BD     		pop	{r3, pc}
 199              	.L15:
 200 002e 00BF     		.align	2
 201              	.L14:
 202 0030 80C70040 		.word	1073792896
 203              		.cfi_endproc
 204              	.LFE5:
 205              		.size	DFB_1_Stop, .-DFB_1_Stop
 206              		.section	.text.DFB_1_Pause,"ax",%progbits
 207              		.align	2
 208              		.global	DFB_1_Pause
 209              		.thumb
 210              		.thumb_func
 211              		.type	DFB_1_Pause, %function
 212              	DFB_1_Pause:
 213              	.LFB6:
 289:Generated_Source\PSoC5/DFB_1.c **** }
 290:Generated_Source\PSoC5/DFB_1.c **** 
 291:Generated_Source\PSoC5/DFB_1.c **** 
 292:Generated_Source\PSoC5/DFB_1.c **** /*******************************************************************************
 293:Generated_Source\PSoC5/DFB_1.c **** * Function Name: DFB_1_Pause
 294:Generated_Source\PSoC5/DFB_1.c **** ********************************************************************************
 295:Generated_Source\PSoC5/DFB_1.c **** *
 296:Generated_Source\PSoC5/DFB_1.c **** * Summary:
 297:Generated_Source\PSoC5/DFB_1.c **** *  This function pauses DFB and enables writing to the DFB RAM:
 298:Generated_Source\PSoC5/DFB_1.c **** *   turns off the Run bit,
ARM GAS  C:\Users\monis\AppData\Local\Temp\ccAw9qWf.s 			page 10


 299:Generated_Source\PSoC5/DFB_1.c **** *   connects the DFB RAM to the data bus,
 300:Generated_Source\PSoC5/DFB_1.c **** *   clears the DFB run bit and passes the control of all DFB RAMs onto bus.
 301:Generated_Source\PSoC5/DFB_1.c **** *
 302:Generated_Source\PSoC5/DFB_1.c **** * Parameters:
 303:Generated_Source\PSoC5/DFB_1.c **** *  None.
 304:Generated_Source\PSoC5/DFB_1.c **** *
 305:Generated_Source\PSoC5/DFB_1.c **** * Return:
 306:Generated_Source\PSoC5/DFB_1.c **** *  None.
 307:Generated_Source\PSoC5/DFB_1.c **** *
 308:Generated_Source\PSoC5/DFB_1.c **** *******************************************************************************/
 309:Generated_Source\PSoC5/DFB_1.c **** void DFB_1_Pause(void) 
 310:Generated_Source\PSoC5/DFB_1.c **** {
 214              		.loc 1 310 0
 215              		.cfi_startproc
 216              		@ args = 0, pretend = 0, frame = 0
 217              		@ frame_needed = 0, uses_anonymous_args = 0
 218              		@ link register save eliminated.
 311:Generated_Source\PSoC5/DFB_1.c ****     /* Turns off Run Bit */
 312:Generated_Source\PSoC5/DFB_1.c ****     DFB_1_CR_REG &= (uint8) (~DFB_1_RUN_MASK);
 219              		.loc 1 312 0
 220 0000 044A     		ldr	r2, .L17
 221 0002 1378     		ldrb	r3, [r2]	@ zero_extendqisi2
 222 0004 03F0FE03 		and	r3, r3, #254
 223 0008 1370     		strb	r3, [r2]
 313:Generated_Source\PSoC5/DFB_1.c ****     /* Puts DFB RAM on the bus */
 314:Generated_Source\PSoC5/DFB_1.c ****     DFB_1_RAM_DIR_REG = DFB_1_RAM_DIR_BUS;
 224              		.loc 1 314 0
 225 000a 3F22     		movs	r2, #63
 226 000c 024B     		ldr	r3, .L17+4
 227 000e 1A70     		strb	r2, [r3]
 228 0010 7047     		bx	lr
 229              	.L18:
 230 0012 00BF     		.align	2
 231              	.L17:
 232 0014 80C70040 		.word	1073792896
 233 0018 8CC70040 		.word	1073792908
 234              		.cfi_endproc
 235              	.LFE6:
 236              		.size	DFB_1_Pause, .-DFB_1_Pause
 237              		.section	.text.DFB_1_Resume,"ax",%progbits
 238              		.align	2
 239              		.global	DFB_1_Resume
 240              		.thumb
 241              		.thumb_func
 242              		.type	DFB_1_Resume, %function
 243              	DFB_1_Resume:
 244              	.LFB7:
 315:Generated_Source\PSoC5/DFB_1.c **** }
 316:Generated_Source\PSoC5/DFB_1.c **** 
 317:Generated_Source\PSoC5/DFB_1.c **** 
 318:Generated_Source\PSoC5/DFB_1.c **** /*******************************************************************************
 319:Generated_Source\PSoC5/DFB_1.c **** * Function Name: DFB_1_Resume
 320:Generated_Source\PSoC5/DFB_1.c **** ********************************************************************************
 321:Generated_Source\PSoC5/DFB_1.c **** *
 322:Generated_Source\PSoC5/DFB_1.c **** * Summary:
 323:Generated_Source\PSoC5/DFB_1.c **** *  This function disables writing to the DFB RAM, clear any pending interrupts,
 324:Generated_Source\PSoC5/DFB_1.c **** *  disconnects the DFB RAM from the data bus, and runs the DFB.
ARM GAS  C:\Users\monis\AppData\Local\Temp\ccAw9qWf.s 			page 11


 325:Generated_Source\PSoC5/DFB_1.c **** *  It passes the control of all DFB RAM to the DFB and then sets the run bit.
 326:Generated_Source\PSoC5/DFB_1.c **** *
 327:Generated_Source\PSoC5/DFB_1.c **** * Parameters:
 328:Generated_Source\PSoC5/DFB_1.c **** *  None.
 329:Generated_Source\PSoC5/DFB_1.c **** *
 330:Generated_Source\PSoC5/DFB_1.c **** * Return:
 331:Generated_Source\PSoC5/DFB_1.c **** *  None.
 332:Generated_Source\PSoC5/DFB_1.c **** *
 333:Generated_Source\PSoC5/DFB_1.c **** *******************************************************************************/
 334:Generated_Source\PSoC5/DFB_1.c **** void DFB_1_Resume(void) 
 335:Generated_Source\PSoC5/DFB_1.c **** {
 245              		.loc 1 335 0
 246              		.cfi_startproc
 247              		@ args = 0, pretend = 0, frame = 0
 248              		@ frame_needed = 0, uses_anonymous_args = 0
 249              		@ link register save eliminated.
 336:Generated_Source\PSoC5/DFB_1.c ****     /* Takes DFB RAM off the bus */
 337:Generated_Source\PSoC5/DFB_1.c ****     DFB_1_RAM_DIR_REG = DFB_1_RAM_DIR_DFB;
 250              		.loc 1 337 0
 251 0000 0022     		movs	r2, #0
 252 0002 054B     		ldr	r3, .L20
 253 0004 1A70     		strb	r2, [r3]
 338:Generated_Source\PSoC5/DFB_1.c ****     /* Clears any pending interrupts */
 339:Generated_Source\PSoC5/DFB_1.c ****     DFB_1_SR_REG = 0xFFu;
 254              		.loc 1 339 0
 255 0006 FF22     		movs	r2, #255
 256 0008 083B     		subs	r3, r3, #8
 257 000a 1A70     		strb	r2, [r3]
 340:Generated_Source\PSoC5/DFB_1.c ****     /* Turns on Run Bit */
 341:Generated_Source\PSoC5/DFB_1.c ****     DFB_1_CR_REG |= DFB_1_RUN_MASK;
 258              		.loc 1 341 0
 259 000c 034A     		ldr	r2, .L20+4
 260 000e 1378     		ldrb	r3, [r2]	@ zero_extendqisi2
 261 0010 43F00103 		orr	r3, r3, #1
 262 0014 1370     		strb	r3, [r2]
 263 0016 7047     		bx	lr
 264              	.L21:
 265              		.align	2
 266              	.L20:
 267 0018 8CC70040 		.word	1073792908
 268 001c 80C70040 		.word	1073792896
 269              		.cfi_endproc
 270              	.LFE7:
 271              		.size	DFB_1_Resume, .-DFB_1_Resume
 272              		.section	.text.DFB_1_SetCoherency,"ax",%progbits
 273              		.align	2
 274              		.global	DFB_1_SetCoherency
 275              		.thumb
 276              		.thumb_func
 277              		.type	DFB_1_SetCoherency, %function
 278              	DFB_1_SetCoherency:
 279              	.LFB8:
 342:Generated_Source\PSoC5/DFB_1.c **** }
 343:Generated_Source\PSoC5/DFB_1.c **** 
 344:Generated_Source\PSoC5/DFB_1.c **** 
 345:Generated_Source\PSoC5/DFB_1.c **** /*******************************************************************************
 346:Generated_Source\PSoC5/DFB_1.c **** * Function Name: DFB_1_SetCoherency
ARM GAS  C:\Users\monis\AppData\Local\Temp\ccAw9qWf.s 			page 12


 347:Generated_Source\PSoC5/DFB_1.c **** ********************************************************************************
 348:Generated_Source\PSoC5/DFB_1.c **** *
 349:Generated_Source\PSoC5/DFB_1.c **** * Summary:
 350:Generated_Source\PSoC5/DFB_1.c **** *  This function sets the coherency key to low/mid/high byte based on the
 351:Generated_Source\PSoC5/DFB_1.c **** *  coherencyKey parameter that is passed to the DFB.
 352:Generated_Source\PSoC5/DFB_1.c **** *  Function allows you to select which of the 3 bytes of each of the STAGEA,
 353:Generated_Source\PSoC5/DFB_1.c **** *  STAGEB, HOLDA and HOLDB will be used as the Key Coherency Byte. Coherency
 354:Generated_Source\PSoC5/DFB_1.c **** *  refers to the HW added to this block to protect against malfunctions of the
 355:Generated_Source\PSoC5/DFB_1.c **** *  block in cases where register fields are wider than the bus access, leaving
 356:Generated_Source\PSoC5/DFB_1.c **** *  intervals in time when fields are partially written/read (incoherent). The
 357:Generated_Source\PSoC5/DFB_1.c **** *  Key Coherency Byte is the SW's way of telling the HW which byte of the field
 358:Generated_Source\PSoC5/DFB_1.c **** *  will be written/read last when an update to the field is desired. When the
 359:Generated_Source\PSoC5/DFB_1.c **** *  Key byte is written/read, the field is flagged coherent. If any other byte
 360:Generated_Source\PSoC5/DFB_1.c **** *  is written or read, the field is flagged incoherent.
 361:Generated_Source\PSoC5/DFB_1.c **** *
 362:Generated_Source\PSoC5/DFB_1.c **** * Parameters:
 363:Generated_Source\PSoC5/DFB_1.c **** *  uint8 coherencyKeyByte: specifies bits in the DFB Coherency Register.
 364:Generated_Source\PSoC5/DFB_1.c **** *   Sets the Key Coherency Byte of the Staging A register
 365:Generated_Source\PSoC5/DFB_1.c **** *    Define                             Description
 366:Generated_Source\PSoC5/DFB_1.c **** *     DFB_1_STGA_KEY_LOW      Key Byte is low byte.
 367:Generated_Source\PSoC5/DFB_1.c **** *     DFB_1_STGA_KEY_MID      Key Byte is med byte.
 368:Generated_Source\PSoC5/DFB_1.c **** *     DFB_1_STGA_KEY_HIGH     Key Byte is high byte.
 369:Generated_Source\PSoC5/DFB_1.c **** *   Sets the Key Coherency Byte of the Staging B register
 370:Generated_Source\PSoC5/DFB_1.c **** *    Define                             Description
 371:Generated_Source\PSoC5/DFB_1.c **** *     DFB_1_STGB_KEY_LOW      Key Byte is low byte.
 372:Generated_Source\PSoC5/DFB_1.c **** *     DFB_1_STGB_KEY_MID      Key Byte is med byte.
 373:Generated_Source\PSoC5/DFB_1.c **** *     DFB_1_STGB_KEY_HIGH     Key Byte is high byte.
 374:Generated_Source\PSoC5/DFB_1.c **** *   Sets the Key Coherency Byte of the Holding A register
 375:Generated_Source\PSoC5/DFB_1.c **** *    Define                             Description
 376:Generated_Source\PSoC5/DFB_1.c **** *     DFB_1_HOLDA_KEY_LOW     Key Byte is low byte.
 377:Generated_Source\PSoC5/DFB_1.c **** *     DFB_1_HOLDA_KEY_MID     Key Byte is med byte.
 378:Generated_Source\PSoC5/DFB_1.c **** *     DFB_1_HOLDA_KEY_HIGH    Key Byte is high byte.
 379:Generated_Source\PSoC5/DFB_1.c **** *   Sets the Key Coherency Byte of the Holding B register
 380:Generated_Source\PSoC5/DFB_1.c **** *    Define                             Description
 381:Generated_Source\PSoC5/DFB_1.c **** *     DFB_1_HOLDB_KEY_LOW     Key Byte is low byte.
 382:Generated_Source\PSoC5/DFB_1.c **** *     DFB_1_HOLDB_KEY_MID     Key Byte is med byte.
 383:Generated_Source\PSoC5/DFB_1.c **** *     DFB_1_HOLDB_KEY_HIGH    Key Byte is high byte.
 384:Generated_Source\PSoC5/DFB_1.c **** *
 385:Generated_Source\PSoC5/DFB_1.c **** * Return:
 386:Generated_Source\PSoC5/DFB_1.c **** *  None.
 387:Generated_Source\PSoC5/DFB_1.c **** *
 388:Generated_Source\PSoC5/DFB_1.c **** * Note:
 389:Generated_Source\PSoC5/DFB_1.c **** *  Default key byte configuration for Staging A and B, and Holding A and B
 390:Generated_Source\PSoC5/DFB_1.c **** *  registers is high byte.
 391:Generated_Source\PSoC5/DFB_1.c **** *
 392:Generated_Source\PSoC5/DFB_1.c **** * Side Effects:
 393:Generated_Source\PSoC5/DFB_1.c **** *  Coherency affects data loading using the LoadInputValue() function and
 394:Generated_Source\PSoC5/DFB_1.c **** *  data retrieval using the GetOutputValue() function.
 395:Generated_Source\PSoC5/DFB_1.c **** *
 396:Generated_Source\PSoC5/DFB_1.c **** *******************************************************************************/
 397:Generated_Source\PSoC5/DFB_1.c **** void DFB_1_SetCoherency(uint8 coherencyKeyByte) 
 398:Generated_Source\PSoC5/DFB_1.c **** {
 280              		.loc 1 398 0
 281              		.cfi_startproc
 282              		@ args = 0, pretend = 0, frame = 0
 283              		@ frame_needed = 0, uses_anonymous_args = 0
 284              		@ link register save eliminated.
ARM GAS  C:\Users\monis\AppData\Local\Temp\ccAw9qWf.s 			page 13


 285              	.LVL17:
 399:Generated_Source\PSoC5/DFB_1.c ****     DFB_1_COHER_REG = coherencyKeyByte;
 286              		.loc 1 399 0
 287 0000 014B     		ldr	r3, .L23
 288 0002 1870     		strb	r0, [r3]
 289 0004 7047     		bx	lr
 290              	.L24:
 291 0006 00BF     		.align	2
 292              	.L23:
 293 0008 B0C70040 		.word	1073792944
 294              		.cfi_endproc
 295              	.LFE8:
 296              		.size	DFB_1_SetCoherency, .-DFB_1_SetCoherency
 297              		.section	.text.DFB_1_SetDalign,"ax",%progbits
 298              		.align	2
 299              		.global	DFB_1_SetDalign
 300              		.thumb
 301              		.thumb_func
 302              		.type	DFB_1_SetDalign, %function
 303              	DFB_1_SetDalign:
 304              	.LFB9:
 400:Generated_Source\PSoC5/DFB_1.c **** }
 401:Generated_Source\PSoC5/DFB_1.c **** 
 402:Generated_Source\PSoC5/DFB_1.c **** 
 403:Generated_Source\PSoC5/DFB_1.c **** /*******************************************************************************
 404:Generated_Source\PSoC5/DFB_1.c **** * Function Name: DFB_1_SetDalign
 405:Generated_Source\PSoC5/DFB_1.c **** ********************************************************************************
 406:Generated_Source\PSoC5/DFB_1.c **** *
 407:Generated_Source\PSoC5/DFB_1.c **** * Summary:
 408:Generated_Source\PSoC5/DFB_1.c **** *  This feature allows 9- to 16-bit input and output samples to travel as 16-bit
 409:Generated_Source\PSoC5/DFB_1.c **** *  values on the AHB bus. These bits when set high cause an 8-bit shift in the
 410:Generated_Source\PSoC5/DFB_1.c **** *  data to all access of the corresponding Staging and Holding registers.
 411:Generated_Source\PSoC5/DFB_1.c **** *  Because the DFB datapath is inherently MSB aligned, it is convenient to the
 412:Generated_Source\PSoC5/DFB_1.c **** *  System SW to align values on bits 23:8 of the Staging and Holding register
 413:Generated_Source\PSoC5/DFB_1.c **** *  to bits 15:0 of the bus. A read of this register produces the last value
 414:Generated_Source\PSoC5/DFB_1.c **** *  written to this register.
 415:Generated_Source\PSoC5/DFB_1.c **** *
 416:Generated_Source\PSoC5/DFB_1.c **** * Parameters:
 417:Generated_Source\PSoC5/DFB_1.c **** *  uint8 dalignKeyByte: specifies bits in the DFB Data Alignment Register.
 418:Generated_Source\PSoC5/DFB_1.c **** *   Shifts the write left by a byte.
 419:Generated_Source\PSoC5/DFB_1.c **** *    Define                               Description
 420:Generated_Source\PSoC5/DFB_1.c **** *     DFB_1_STGA_DALIGN_LOW     Writes normally.
 421:Generated_Source\PSoC5/DFB_1.c **** *     DFB_1_STGA_DALIGN_HIGH    Writes shifted left by 8-bits.
 422:Generated_Source\PSoC5/DFB_1.c **** *   Shifts the write left by a byte.
 423:Generated_Source\PSoC5/DFB_1.c **** *    Define                               Description
 424:Generated_Source\PSoC5/DFB_1.c **** *     DFB_1_STGB_DALIGN_LOW     Writes normally.
 425:Generated_Source\PSoC5/DFB_1.c **** *     DFB_1_STGB_DALIGN_HIGH    Writes shifted left by 8-bits.
 426:Generated_Source\PSoC5/DFB_1.c **** *   Shifts the read right by a byte.
 427:Generated_Source\PSoC5/DFB_1.c **** *    Define                               Description
 428:Generated_Source\PSoC5/DFB_1.c **** *     DFB_1_HOLDA_DALIGN_LOW     Reads normally.
 429:Generated_Source\PSoC5/DFB_1.c **** *     DFB_1_HOLDA_DALIGN_HIGH    Reads shifted right by 8-bits.
 430:Generated_Source\PSoC5/DFB_1.c **** *   Shifts the read right by a byte.
 431:Generated_Source\PSoC5/DFB_1.c **** *    Define                               Description
 432:Generated_Source\PSoC5/DFB_1.c **** *     DFB_1_HOLDB_DALIGN_LOW     Reads normally.
 433:Generated_Source\PSoC5/DFB_1.c **** *     DFB_1_HOLDB_DALIGN_HIGH    Reads shifted right by 8-bits.
 434:Generated_Source\PSoC5/DFB_1.c **** *
 435:Generated_Source\PSoC5/DFB_1.c **** * Return:
ARM GAS  C:\Users\monis\AppData\Local\Temp\ccAw9qWf.s 			page 14


 436:Generated_Source\PSoC5/DFB_1.c **** *  None.
 437:Generated_Source\PSoC5/DFB_1.c **** *
 438:Generated_Source\PSoC5/DFB_1.c **** *******************************************************************************/
 439:Generated_Source\PSoC5/DFB_1.c **** void DFB_1_SetDalign(uint8 dalignKeyByte) 
 440:Generated_Source\PSoC5/DFB_1.c **** {
 305              		.loc 1 440 0
 306              		.cfi_startproc
 307              		@ args = 0, pretend = 0, frame = 0
 308              		@ frame_needed = 0, uses_anonymous_args = 0
 309              		@ link register save eliminated.
 310              	.LVL18:
 441:Generated_Source\PSoC5/DFB_1.c ****     DFB_1_DALIGN_REG = dalignKeyByte;
 311              		.loc 1 441 0
 312 0000 014B     		ldr	r3, .L26
 313 0002 1870     		strb	r0, [r3]
 314 0004 7047     		bx	lr
 315              	.L27:
 316 0006 00BF     		.align	2
 317              	.L26:
 318 0008 B4C70040 		.word	1073792948
 319              		.cfi_endproc
 320              	.LFE9:
 321              		.size	DFB_1_SetDalign, .-DFB_1_SetDalign
 322              		.section	.text.DFB_1_LoadDataRAMA,"ax",%progbits
 323              		.align	2
 324              		.global	DFB_1_LoadDataRAMA
 325              		.thumb
 326              		.thumb_func
 327              		.type	DFB_1_LoadDataRAMA, %function
 328              	DFB_1_LoadDataRAMA:
 329              	.LFB10:
 442:Generated_Source\PSoC5/DFB_1.c **** }
 443:Generated_Source\PSoC5/DFB_1.c **** 
 444:Generated_Source\PSoC5/DFB_1.c **** 
 445:Generated_Source\PSoC5/DFB_1.c **** /*******************************************************************************
 446:Generated_Source\PSoC5/DFB_1.c **** * Function Name: DFB_1_LoadDataRAMA
 447:Generated_Source\PSoC5/DFB_1.c **** ********************************************************************************
 448:Generated_Source\PSoC5/DFB_1.c **** *
 449:Generated_Source\PSoC5/DFB_1.c **** * Summary:
 450:Generated_Source\PSoC5/DFB_1.c **** *  This function loads data to DFB RAM A memory.
 451:Generated_Source\PSoC5/DFB_1.c **** *
 452:Generated_Source\PSoC5/DFB_1.c **** * Parameters:
 453:Generated_Source\PSoC5/DFB_1.c **** *  const int32 ptr[]: pointer on data source for load;
 454:Generated_Source\PSoC5/DFB_1.c **** *  uint32     addr[]: start address for loading the data in DFB RAM A;
 455:Generated_Source\PSoC5/DFB_1.c **** *  uint8        size: number of data words to load.
 456:Generated_Source\PSoC5/DFB_1.c **** *
 457:Generated_Source\PSoC5/DFB_1.c **** * Return:
 458:Generated_Source\PSoC5/DFB_1.c **** *  DFB_1_SUCCESS - Loading data is successful.
 459:Generated_Source\PSoC5/DFB_1.c **** *  DFB_1_ADDRESS_OUT_OF_RANGE - error code, indicates that the
 460:Generated_Source\PSoC5/DFB_1.c **** *  address is out of range.
 461:Generated_Source\PSoC5/DFB_1.c **** *  DFB_1_DATA_OUT_OF_RANGE - error code, indicates a data overflow
 462:Generated_Source\PSoC5/DFB_1.c **** *  error.
 463:Generated_Source\PSoC5/DFB_1.c **** *
 464:Generated_Source\PSoC5/DFB_1.c **** * Side Effects:
 465:Generated_Source\PSoC5/DFB_1.c **** *  This API doesn't stop the DFB if it is already started. Hence, recommended
 466:Generated_Source\PSoC5/DFB_1.c **** *  method is to call Init() API, then LoadDataRAMA() API and then Enable() API.
 467:Generated_Source\PSoC5/DFB_1.c **** *
ARM GAS  C:\Users\monis\AppData\Local\Temp\ccAw9qWf.s 			page 15


 468:Generated_Source\PSoC5/DFB_1.c **** *******************************************************************************/
 469:Generated_Source\PSoC5/DFB_1.c **** uint8 DFB_1_LoadDataRAMA(const int32 ptr[], uint32 addr[], uint8 size)
 470:Generated_Source\PSoC5/DFB_1.c ****      
 471:Generated_Source\PSoC5/DFB_1.c **** {
 330              		.loc 1 471 0
 331              		.cfi_startproc
 332              		@ args = 0, pretend = 0, frame = 0
 333              		@ frame_needed = 0, uses_anonymous_args = 0
 334              		@ link register save eliminated.
 335              	.LVL19:
 472:Generated_Source\PSoC5/DFB_1.c ****     uint8 result = DFB_1_SUCCESS;
 473:Generated_Source\PSoC5/DFB_1.c ****     uint8 i = 0u;
 474:Generated_Source\PSoC5/DFB_1.c ****     
 475:Generated_Source\PSoC5/DFB_1.c ****     if (((& addr[0u]) < DFB_1_DA_RAM_PTR) || ((& addr[0u]) > DFB_1_DA_RAM_LAST_ELEM_PTR))
 336              		.loc 1 475 0
 337 0000 01F14043 		add	r3, r1, #-1073741824
 338 0004 A3F54043 		sub	r3, r3, #49152
 339 0008 B3F5FE7F 		cmp	r3, #508
 340 000c 22D8     		bhi	.L32
 476:Generated_Source\PSoC5/DFB_1.c ****     {
 477:Generated_Source\PSoC5/DFB_1.c ****         result = DFB_1_ADDRESS_OUT_OF_RANGE;
 478:Generated_Source\PSoC5/DFB_1.c ****     }
 479:Generated_Source\PSoC5/DFB_1.c ****     else if ((size == 0u) || ((& addr[size - 1u]) > DFB_1_DA_RAM_LAST_ELEM_PTR))
 341              		.loc 1 479 0
 342 000e 1AB3     		cbz	r2, .L33
 471:Generated_Source\PSoC5/DFB_1.c ****     uint8 result = DFB_1_SUCCESS;
 343              		.loc 1 471 0 discriminator 1
 344 0010 10B4     		push	{r4}
 345              		.cfi_def_cfa_offset 4
 346              		.cfi_offset 4, -4
 347              		.loc 1 479 0 discriminator 1
 348 0012 02F18043 		add	r3, r2, #1073741824
 349 0016 013B     		subs	r3, r3, #1
 350 0018 01EB8303 		add	r3, r1, r3, lsl #2
 351 001c 114C     		ldr	r4, .L37
 352 001e A342     		cmp	r3, r4
 353 0020 1CD8     		bhi	.L34
 480:Generated_Source\PSoC5/DFB_1.c ****     {
 481:Generated_Source\PSoC5/DFB_1.c ****         result = DFB_1_DATA_OUT_OF_RANGE;
 482:Generated_Source\PSoC5/DFB_1.c ****     }
 483:Generated_Source\PSoC5/DFB_1.c ****     else
 484:Generated_Source\PSoC5/DFB_1.c ****     {
 485:Generated_Source\PSoC5/DFB_1.c ****         /* Puts DFB RAM on the bus */
 486:Generated_Source\PSoC5/DFB_1.c ****         DFB_1_RAM_DIR_REG |= DFB_1_RAM_DPA_DIR;
 354              		.loc 1 486 0
 355 0022 04F5B264 		add	r4, r4, #1424
 356 0026 2378     		ldrb	r3, [r4]	@ zero_extendqisi2
 357 0028 43F01003 		orr	r3, r3, #16
 358 002c 2370     		strb	r3, [r4]
 473:Generated_Source\PSoC5/DFB_1.c ****     
 359              		.loc 1 473 0
 360 002e 0023     		movs	r3, #0
 487:Generated_Source\PSoC5/DFB_1.c ****         while (size > 0u)
 361              		.loc 1 487 0
 362 0030 07E0     		b	.L30
 363              	.LVL20:
 364              	.L31:
ARM GAS  C:\Users\monis\AppData\Local\Temp\ccAw9qWf.s 			page 16


 488:Generated_Source\PSoC5/DFB_1.c ****         {
 489:Generated_Source\PSoC5/DFB_1.c ****             CY_SET_REG32((reg32 *) (& addr[i]), (uint32) ptr[i]);
 365              		.loc 1 489 0
 366 0032 50F82340 		ldr	r4, [r0, r3, lsl #2]
 367 0036 41F82340 		str	r4, [r1, r3, lsl #2]
 490:Generated_Source\PSoC5/DFB_1.c ****             size--;            
 368              		.loc 1 490 0
 369 003a 013A     		subs	r2, r2, #1
 370              	.LVL21:
 371 003c D2B2     		uxtb	r2, r2
 372              	.LVL22:
 491:Generated_Source\PSoC5/DFB_1.c ****             i++;
 373              		.loc 1 491 0
 374 003e 0133     		adds	r3, r3, #1
 375              	.LVL23:
 376 0040 DBB2     		uxtb	r3, r3
 377              	.LVL24:
 378              	.L30:
 487:Generated_Source\PSoC5/DFB_1.c ****         {
 379              		.loc 1 487 0
 380 0042 002A     		cmp	r2, #0
 381 0044 F5D1     		bne	.L31
 492:Generated_Source\PSoC5/DFB_1.c ****         }
 493:Generated_Source\PSoC5/DFB_1.c ****         /* Takes DFB RAM off the bus */
 494:Generated_Source\PSoC5/DFB_1.c ****         DFB_1_RAM_DIR_REG &= (uint8) (~DFB_1_RAM_DPA_DIR);
 382              		.loc 1 494 0
 383 0046 084A     		ldr	r2, .L37+4
 384              	.LVL25:
 385 0048 1378     		ldrb	r3, [r2]	@ zero_extendqisi2
 386              	.LVL26:
 387 004a 03F0EF03 		and	r3, r3, #239
 388 004e 1370     		strb	r3, [r2]
 472:Generated_Source\PSoC5/DFB_1.c ****     uint8 i = 0u;
 389              		.loc 1 472 0
 390 0050 0020     		movs	r0, #0
 391              	.LVL27:
 392 0052 04E0     		b	.L29
 393              	.LVL28:
 394              	.L32:
 395              		.cfi_def_cfa_offset 0
 396              		.cfi_restore 4
 477:Generated_Source\PSoC5/DFB_1.c ****     }
 397              		.loc 1 477 0
 398 0054 FF20     		movs	r0, #255
 399              	.LVL29:
 495:Generated_Source\PSoC5/DFB_1.c ****     }
 496:Generated_Source\PSoC5/DFB_1.c **** 
 497:Generated_Source\PSoC5/DFB_1.c ****     return (result);
 498:Generated_Source\PSoC5/DFB_1.c **** }
 400              		.loc 1 498 0
 401 0056 7047     		bx	lr
 402              	.LVL30:
 403              	.L33:
 481:Generated_Source\PSoC5/DFB_1.c ****     }
 404              		.loc 1 481 0
 405 0058 FE20     		movs	r0, #254
 406              	.LVL31:
ARM GAS  C:\Users\monis\AppData\Local\Temp\ccAw9qWf.s 			page 17


 407 005a 7047     		bx	lr
 408              	.LVL32:
 409              	.L34:
 410              		.cfi_def_cfa_offset 4
 411              		.cfi_offset 4, -4
 412 005c FE20     		movs	r0, #254
 413              	.LVL33:
 414              	.L29:
 415              		.loc 1 498 0
 416 005e 10BC     		pop	{r4}
 417              		.cfi_restore 4
 418              		.cfi_def_cfa_offset 0
 419 0060 7047     		bx	lr
 420              	.L38:
 421 0062 00BF     		.align	2
 422              	.L37:
 423 0064 FCC10040 		.word	1073791484
 424 0068 8CC70040 		.word	1073792908
 425              		.cfi_endproc
 426              	.LFE10:
 427              		.size	DFB_1_LoadDataRAMA, .-DFB_1_LoadDataRAMA
 428              		.section	.text.DFB_1_LoadDataRAMB,"ax",%progbits
 429              		.align	2
 430              		.global	DFB_1_LoadDataRAMB
 431              		.thumb
 432              		.thumb_func
 433              		.type	DFB_1_LoadDataRAMB, %function
 434              	DFB_1_LoadDataRAMB:
 435              	.LFB11:
 499:Generated_Source\PSoC5/DFB_1.c **** 
 500:Generated_Source\PSoC5/DFB_1.c **** 
 501:Generated_Source\PSoC5/DFB_1.c **** /*******************************************************************************
 502:Generated_Source\PSoC5/DFB_1.c **** * Function Name: DFB_1_LoadDataRAMB
 503:Generated_Source\PSoC5/DFB_1.c **** ********************************************************************************
 504:Generated_Source\PSoC5/DFB_1.c **** *
 505:Generated_Source\PSoC5/DFB_1.c **** * Summary:
 506:Generated_Source\PSoC5/DFB_1.c **** *  This function loads data to DFB RAM B memory.
 507:Generated_Source\PSoC5/DFB_1.c **** *
 508:Generated_Source\PSoC5/DFB_1.c **** * Parameters:
 509:Generated_Source\PSoC5/DFB_1.c **** *  const int32 ptr[]: pointer on data source for load;
 510:Generated_Source\PSoC5/DFB_1.c **** *  uint32     addr[]: start addres for loading the data in DFB RAM B;
 511:Generated_Source\PSoC5/DFB_1.c **** *  uint8        size: number of data words to load.
 512:Generated_Source\PSoC5/DFB_1.c **** *
 513:Generated_Source\PSoC5/DFB_1.c **** * Return:
 514:Generated_Source\PSoC5/DFB_1.c **** *  DFB_1_SUCCESS - Loading data is successful.
 515:Generated_Source\PSoC5/DFB_1.c **** *  DFB_1_ADDRESS_OUT_OF_RANGE - error code, indicates that the
 516:Generated_Source\PSoC5/DFB_1.c **** *  address is out of range.
 517:Generated_Source\PSoC5/DFB_1.c **** *  DFB_1_DATA_OUT_OF_RANGE - error code, indicates data overflow
 518:Generated_Source\PSoC5/DFB_1.c **** *  error.
 519:Generated_Source\PSoC5/DFB_1.c **** *
 520:Generated_Source\PSoC5/DFB_1.c **** * Side Effects:
 521:Generated_Source\PSoC5/DFB_1.c **** *  This API doesn't stop the DFB if it is already started. Hence, recommended
 522:Generated_Source\PSoC5/DFB_1.c **** *  method is to call Init() API, then LoadDataRAMB() API and then Enable() API.
 523:Generated_Source\PSoC5/DFB_1.c **** *
 524:Generated_Source\PSoC5/DFB_1.c **** *******************************************************************************/
 525:Generated_Source\PSoC5/DFB_1.c **** uint8 DFB_1_LoadDataRAMB(const int32 ptr[], uint32 addr[], uint8 size)
 526:Generated_Source\PSoC5/DFB_1.c ****      
ARM GAS  C:\Users\monis\AppData\Local\Temp\ccAw9qWf.s 			page 18


 527:Generated_Source\PSoC5/DFB_1.c **** {
 436              		.loc 1 527 0
 437              		.cfi_startproc
 438              		@ args = 0, pretend = 0, frame = 0
 439              		@ frame_needed = 0, uses_anonymous_args = 0
 440              		@ link register save eliminated.
 441              	.LVL34:
 528:Generated_Source\PSoC5/DFB_1.c ****     uint8 result = DFB_1_SUCCESS;
 529:Generated_Source\PSoC5/DFB_1.c ****     uint8 i = 0u;
 530:Generated_Source\PSoC5/DFB_1.c ****     
 531:Generated_Source\PSoC5/DFB_1.c ****     if (((& addr[0u]) < DFB_1_DB_RAM_PTR) || ((& addr[0u]) > DFB_1_DB_RAM_LAST_ELEM_PTR))
 442              		.loc 1 531 0
 443 0000 01F14043 		add	r3, r1, #-1073741824
 444 0004 A3F54243 		sub	r3, r3, #49664
 445 0008 B3F5FE7F 		cmp	r3, #508
 446 000c 22D8     		bhi	.L43
 532:Generated_Source\PSoC5/DFB_1.c ****     {
 533:Generated_Source\PSoC5/DFB_1.c ****         result = DFB_1_ADDRESS_OUT_OF_RANGE;
 534:Generated_Source\PSoC5/DFB_1.c ****     }
 535:Generated_Source\PSoC5/DFB_1.c ****     else if ((size == 0u) || ((& addr[size - 1u]) > DFB_1_DB_RAM_LAST_ELEM_PTR))
 447              		.loc 1 535 0
 448 000e 1AB3     		cbz	r2, .L44
 527:Generated_Source\PSoC5/DFB_1.c ****     uint8 result = DFB_1_SUCCESS;
 449              		.loc 1 527 0 discriminator 1
 450 0010 10B4     		push	{r4}
 451              		.cfi_def_cfa_offset 4
 452              		.cfi_offset 4, -4
 453              		.loc 1 535 0 discriminator 1
 454 0012 02F18043 		add	r3, r2, #1073741824
 455 0016 013B     		subs	r3, r3, #1
 456 0018 01EB8303 		add	r3, r1, r3, lsl #2
 457 001c 114C     		ldr	r4, .L48
 458 001e A342     		cmp	r3, r4
 459 0020 1CD8     		bhi	.L45
 536:Generated_Source\PSoC5/DFB_1.c ****     {
 537:Generated_Source\PSoC5/DFB_1.c ****         result = DFB_1_DATA_OUT_OF_RANGE;
 538:Generated_Source\PSoC5/DFB_1.c ****     }
 539:Generated_Source\PSoC5/DFB_1.c ****     else
 540:Generated_Source\PSoC5/DFB_1.c ****     {
 541:Generated_Source\PSoC5/DFB_1.c ****         /* Puts DFB RAM on the bus */
 542:Generated_Source\PSoC5/DFB_1.c ****         DFB_1_RAM_DIR_REG |= DFB_1_RAM_DPB_DIR;
 460              		.loc 1 542 0
 461 0022 04F56474 		add	r4, r4, #912
 462 0026 2378     		ldrb	r3, [r4]	@ zero_extendqisi2
 463 0028 43F02003 		orr	r3, r3, #32
 464 002c 2370     		strb	r3, [r4]
 529:Generated_Source\PSoC5/DFB_1.c ****     
 465              		.loc 1 529 0
 466 002e 0023     		movs	r3, #0
 543:Generated_Source\PSoC5/DFB_1.c ****         while (size > 0u)
 467              		.loc 1 543 0
 468 0030 07E0     		b	.L41
 469              	.LVL35:
 470              	.L42:
 544:Generated_Source\PSoC5/DFB_1.c ****         {
 545:Generated_Source\PSoC5/DFB_1.c ****             CY_SET_REG32((reg32 *) (& addr[i]), (uint32) ptr[i]);
 471              		.loc 1 545 0
ARM GAS  C:\Users\monis\AppData\Local\Temp\ccAw9qWf.s 			page 19


 472 0032 50F82340 		ldr	r4, [r0, r3, lsl #2]
 473 0036 41F82340 		str	r4, [r1, r3, lsl #2]
 546:Generated_Source\PSoC5/DFB_1.c ****             size--;
 474              		.loc 1 546 0
 475 003a 013A     		subs	r2, r2, #1
 476              	.LVL36:
 477 003c D2B2     		uxtb	r2, r2
 478              	.LVL37:
 547:Generated_Source\PSoC5/DFB_1.c ****             i++;
 479              		.loc 1 547 0
 480 003e 0133     		adds	r3, r3, #1
 481              	.LVL38:
 482 0040 DBB2     		uxtb	r3, r3
 483              	.LVL39:
 484              	.L41:
 543:Generated_Source\PSoC5/DFB_1.c ****         {
 485              		.loc 1 543 0
 486 0042 002A     		cmp	r2, #0
 487 0044 F5D1     		bne	.L42
 548:Generated_Source\PSoC5/DFB_1.c ****         }
 549:Generated_Source\PSoC5/DFB_1.c ****         /* Takes DFB RAM off the bus */
 550:Generated_Source\PSoC5/DFB_1.c ****         DFB_1_RAM_DIR_REG &= (uint8) (~DFB_1_RAM_DPB_DIR);
 488              		.loc 1 550 0
 489 0046 084A     		ldr	r2, .L48+4
 490              	.LVL40:
 491 0048 1378     		ldrb	r3, [r2]	@ zero_extendqisi2
 492              	.LVL41:
 493 004a 03F0DF03 		and	r3, r3, #223
 494 004e 1370     		strb	r3, [r2]
 528:Generated_Source\PSoC5/DFB_1.c ****     uint8 i = 0u;
 495              		.loc 1 528 0
 496 0050 0020     		movs	r0, #0
 497              	.LVL42:
 498 0052 04E0     		b	.L40
 499              	.LVL43:
 500              	.L43:
 501              		.cfi_def_cfa_offset 0
 502              		.cfi_restore 4
 533:Generated_Source\PSoC5/DFB_1.c ****     }
 503              		.loc 1 533 0
 504 0054 FF20     		movs	r0, #255
 505              	.LVL44:
 551:Generated_Source\PSoC5/DFB_1.c ****     }
 552:Generated_Source\PSoC5/DFB_1.c **** 
 553:Generated_Source\PSoC5/DFB_1.c ****     return (result);
 554:Generated_Source\PSoC5/DFB_1.c **** }
 506              		.loc 1 554 0
 507 0056 7047     		bx	lr
 508              	.LVL45:
 509              	.L44:
 537:Generated_Source\PSoC5/DFB_1.c ****     }
 510              		.loc 1 537 0
 511 0058 FE20     		movs	r0, #254
 512              	.LVL46:
 513 005a 7047     		bx	lr
 514              	.LVL47:
 515              	.L45:
ARM GAS  C:\Users\monis\AppData\Local\Temp\ccAw9qWf.s 			page 20


 516              		.cfi_def_cfa_offset 4
 517              		.cfi_offset 4, -4
 518 005c FE20     		movs	r0, #254
 519              	.LVL48:
 520              	.L40:
 521              		.loc 1 554 0
 522 005e 10BC     		pop	{r4}
 523              		.cfi_restore 4
 524              		.cfi_def_cfa_offset 0
 525 0060 7047     		bx	lr
 526              	.L49:
 527 0062 00BF     		.align	2
 528              	.L48:
 529 0064 FCC30040 		.word	1073791996
 530 0068 8CC70040 		.word	1073792908
 531              		.cfi_endproc
 532              	.LFE11:
 533              		.size	DFB_1_LoadDataRAMB, .-DFB_1_LoadDataRAMB
 534              		.section	.text.DFB_1_LoadInputValue,"ax",%progbits
 535              		.align	2
 536              		.global	DFB_1_LoadInputValue
 537              		.thumb
 538              		.thumb_func
 539              		.type	DFB_1_LoadInputValue, %function
 540              	DFB_1_LoadInputValue:
 541              	.LFB12:
 555:Generated_Source\PSoC5/DFB_1.c **** 
 556:Generated_Source\PSoC5/DFB_1.c **** 
 557:Generated_Source\PSoC5/DFB_1.c **** /*******************************************************************************
 558:Generated_Source\PSoC5/DFB_1.c **** * Function Name: DFB_1_LoadInputValue
 559:Generated_Source\PSoC5/DFB_1.c **** ********************************************************************************
 560:Generated_Source\PSoC5/DFB_1.c **** *
 561:Generated_Source\PSoC5/DFB_1.c **** * Summary:
 562:Generated_Source\PSoC5/DFB_1.c **** *  This function loads input value in selected channel.
 563:Generated_Source\PSoC5/DFB_1.c **** *
 564:Generated_Source\PSoC5/DFB_1.c **** * Parameters:
 565:Generated_Source\PSoC5/DFB_1.c **** *  channel: Use either DFB_1_CHANNEL_A (1) or
 566:Generated_Source\PSoC5/DFB_1.c **** *           DFB_1_CHANNEL_B (0) asarguments to the function;
 567:Generated_Source\PSoC5/DFB_1.c **** *  sample: The 24-bit, right justified input sample.
 568:Generated_Source\PSoC5/DFB_1.c **** *
 569:Generated_Source\PSoC5/DFB_1.c **** * Return:
 570:Generated_Source\PSoC5/DFB_1.c **** *  None.
 571:Generated_Source\PSoC5/DFB_1.c **** *
 572:Generated_Source\PSoC5/DFB_1.c **** * Note:
 573:Generated_Source\PSoC5/DFB_1.c **** *  The write order is important. When the high byte is loaded, the DFB sets
 574:Generated_Source\PSoC5/DFB_1.c **** *  the input ready bit. Pay attention to byte order if coherency or data
 575:Generated_Source\PSoC5/DFB_1.c **** *  alignment is changed.
 576:Generated_Source\PSoC5/DFB_1.c **** *
 577:Generated_Source\PSoC5/DFB_1.c **** *******************************************************************************/
 578:Generated_Source\PSoC5/DFB_1.c **** void DFB_1_LoadInputValue(uint8 channel, int32 sample) 
 579:Generated_Source\PSoC5/DFB_1.c **** {
 542              		.loc 1 579 0
 543              		.cfi_startproc
 544              		@ args = 0, pretend = 0, frame = 0
 545              		@ frame_needed = 0, uses_anonymous_args = 0
 546              		@ link register save eliminated.
 547              	.LVL49:
ARM GAS  C:\Users\monis\AppData\Local\Temp\ccAw9qWf.s 			page 21


 580:Generated_Source\PSoC5/DFB_1.c ****     uint32 value;
 581:Generated_Source\PSoC5/DFB_1.c **** 
 582:Generated_Source\PSoC5/DFB_1.c ****     value = (uint32) sample;
 583:Generated_Source\PSoC5/DFB_1.c **** 
 584:Generated_Source\PSoC5/DFB_1.c ****     /* Writes the STAGE-"H" reg last as it signals a complete wrote to the DFB.*/
 585:Generated_Source\PSoC5/DFB_1.c ****     if (channel == DFB_1_CHANNEL_A)
 548              		.loc 1 585 0
 549 0000 0128     		cmp	r0, #1
 550 0002 0BD1     		bne	.L51
 586:Generated_Source\PSoC5/DFB_1.c ****     {
 587:Generated_Source\PSoC5/DFB_1.c ****         DFB_1_STAGEA_REG  = (uint8) value;
 551              		.loc 1 587 0
 552 0004 CAB2     		uxtb	r2, r1
 553 0006 0C4B     		ldr	r3, .L53
 554 0008 1A70     		strb	r2, [r3]
 588:Generated_Source\PSoC5/DFB_1.c ****         DFB_1_STAGEAM_REG = (uint8) (value >> 8u);
 555              		.loc 1 588 0
 556 000a C1F30722 		ubfx	r2, r1, #8, #8
 557 000e 0133     		adds	r3, r3, #1
 558 0010 1A70     		strb	r2, [r3]
 589:Generated_Source\PSoC5/DFB_1.c ****         DFB_1_STAGEAH_REG = (uint8) (value >> 16u);
 559              		.loc 1 589 0
 560 0012 C1F30741 		ubfx	r1, r1, #16, #8
 561              	.LVL50:
 562 0016 0133     		adds	r3, r3, #1
 563 0018 1970     		strb	r1, [r3]
 564 001a 7047     		bx	lr
 565              	.LVL51:
 566              	.L51:
 590:Generated_Source\PSoC5/DFB_1.c ****     }
 591:Generated_Source\PSoC5/DFB_1.c ****     else if (channel == DFB_1_CHANNEL_B)
 567              		.loc 1 591 0
 568 001c 50B9     		cbnz	r0, .L50
 592:Generated_Source\PSoC5/DFB_1.c ****     {
 593:Generated_Source\PSoC5/DFB_1.c ****         DFB_1_STAGEB_REG  = (uint8) value;
 569              		.loc 1 593 0
 570 001e CAB2     		uxtb	r2, r1
 571 0020 064B     		ldr	r3, .L53+4
 572 0022 1A70     		strb	r2, [r3]
 594:Generated_Source\PSoC5/DFB_1.c ****         DFB_1_STAGEBM_REG = (uint8) (value >> 8u);
 573              		.loc 1 594 0
 574 0024 C1F30722 		ubfx	r2, r1, #8, #8
 575 0028 0133     		adds	r3, r3, #1
 576 002a 1A70     		strb	r2, [r3]
 595:Generated_Source\PSoC5/DFB_1.c ****         DFB_1_STAGEBH_REG = (uint8) (value >> 16u);
 577              		.loc 1 595 0
 578 002c C1F30741 		ubfx	r1, r1, #16, #8
 579              	.LVL52:
 580 0030 0133     		adds	r3, r3, #1
 581 0032 1970     		strb	r1, [r3]
 582              	.L50:
 583 0034 7047     		bx	lr
 584              	.L54:
 585 0036 00BF     		.align	2
 586              	.L53:
 587 0038 A0C70040 		.word	1073792928
 588 003c A4C70040 		.word	1073792932
ARM GAS  C:\Users\monis\AppData\Local\Temp\ccAw9qWf.s 			page 22


 589              		.cfi_endproc
 590              	.LFE12:
 591              		.size	DFB_1_LoadInputValue, .-DFB_1_LoadInputValue
 592              		.section	.text.DFB_1_GetOutputValue,"ax",%progbits
 593              		.align	2
 594              		.global	DFB_1_GetOutputValue
 595              		.thumb
 596              		.thumb_func
 597              		.type	DFB_1_GetOutputValue, %function
 598              	DFB_1_GetOutputValue:
 599              	.LFB13:
 596:Generated_Source\PSoC5/DFB_1.c ****     }
 597:Generated_Source\PSoC5/DFB_1.c ****     else
 598:Generated_Source\PSoC5/DFB_1.c ****     {
 599:Generated_Source\PSoC5/DFB_1.c ****         /* No value is loaded on bad channel input */
 600:Generated_Source\PSoC5/DFB_1.c ****     }
 601:Generated_Source\PSoC5/DFB_1.c **** }
 602:Generated_Source\PSoC5/DFB_1.c **** 
 603:Generated_Source\PSoC5/DFB_1.c **** 
 604:Generated_Source\PSoC5/DFB_1.c **** /*******************************************************************************
 605:Generated_Source\PSoC5/DFB_1.c **** * Function Name: DFB_1_GetOutputValue
 606:Generated_Source\PSoC5/DFB_1.c **** ********************************************************************************
 607:Generated_Source\PSoC5/DFB_1.c **** *
 608:Generated_Source\PSoC5/DFB_1.c **** * Summary:
 609:Generated_Source\PSoC5/DFB_1.c **** *  This function gets the value from one of the DFB Output Holding Registers.
 610:Generated_Source\PSoC5/DFB_1.c **** *
 611:Generated_Source\PSoC5/DFB_1.c **** * Parameters:
 612:Generated_Source\PSoC5/DFB_1.c **** *  channel: Use either DFB_1_CHANNEL_A (1) or
 613:Generated_Source\PSoC5/DFB_1.c **** *           DFB_1_CHANNEL_B (0) as arguments to the function.
 614:Generated_Source\PSoC5/DFB_1.c **** *
 615:Generated_Source\PSoC5/DFB_1.c **** * Return:
 616:Generated_Source\PSoC5/DFB_1.c **** *  The current output value in the chosen channel's holding register. This is
 617:Generated_Source\PSoC5/DFB_1.c **** *  a 24-bit number packed into the least-significant 3 bytes of the output word
 618:Generated_Source\PSoC5/DFB_1.c **** *  or 0xFF000000 for invalid channel numbers
 619:Generated_Source\PSoC5/DFB_1.c **** *
 620:Generated_Source\PSoC5/DFB_1.c **** * Note:
 621:Generated_Source\PSoC5/DFB_1.c **** *  Because of the architecture of the DFB, any value read from the Holding A or
 622:Generated_Source\PSoC5/DFB_1.c **** *  B registers will be MSB aligned unless shifted otherwise by the Datapath
 623:Generated_Source\PSoC5/DFB_1.c **** *  shifter. Pay attention to byte order if coherency or data alignment is
 624:Generated_Source\PSoC5/DFB_1.c **** *  changed.
 625:Generated_Source\PSoC5/DFB_1.c **** *
 626:Generated_Source\PSoC5/DFB_1.c **** *******************************************************************************/
 627:Generated_Source\PSoC5/DFB_1.c **** int32 DFB_1_GetOutputValue(uint8 channel) 
 628:Generated_Source\PSoC5/DFB_1.c **** {
 600              		.loc 1 628 0
 601              		.cfi_startproc
 602              		@ args = 0, pretend = 0, frame = 0
 603              		@ frame_needed = 0, uses_anonymous_args = 0
 604              		@ link register save eliminated.
 605              	.LVL53:
 629:Generated_Source\PSoC5/DFB_1.c ****     uint8 data0;
 630:Generated_Source\PSoC5/DFB_1.c ****     uint8 data1;
 631:Generated_Source\PSoC5/DFB_1.c ****     uint8 data2;
 632:Generated_Source\PSoC5/DFB_1.c ****     uint8 data3;
 633:Generated_Source\PSoC5/DFB_1.c ****     uint32 output;
 634:Generated_Source\PSoC5/DFB_1.c **** 
 635:Generated_Source\PSoC5/DFB_1.c ****     /* Reads the HOLD-"H" reg last as it signals a complete read to the DFB.*/
ARM GAS  C:\Users\monis\AppData\Local\Temp\ccAw9qWf.s 			page 23


 636:Generated_Source\PSoC5/DFB_1.c ****     if (channel == DFB_1_CHANNEL_A)
 606              		.loc 1 636 0
 607 0000 0128     		cmp	r0, #1
 608 0002 0DD1     		bne	.L56
 637:Generated_Source\PSoC5/DFB_1.c ****     {
 638:Generated_Source\PSoC5/DFB_1.c ****         data0 = DFB_1_HOLDA_REG;
 609              		.loc 1 638 0
 610 0004 154B     		ldr	r3, .L61
 611 0006 1878     		ldrb	r0, [r3]	@ zero_extendqisi2
 612              	.LVL54:
 613 0008 C0B2     		uxtb	r0, r0
 614              	.LVL55:
 639:Generated_Source\PSoC5/DFB_1.c ****         data1 = DFB_1_HOLDAM_REG;
 615              		.loc 1 639 0
 616 000a 0133     		adds	r3, r3, #1
 617 000c 1B78     		ldrb	r3, [r3]	@ zero_extendqisi2
 618 000e D9B2     		uxtb	r1, r3
 619              	.LVL56:
 640:Generated_Source\PSoC5/DFB_1.c ****         data2 = DFB_1_HOLDAH_REG;
 620              		.loc 1 640 0
 621 0010 134B     		ldr	r3, .L61+4
 622 0012 1A78     		ldrb	r2, [r3]	@ zero_extendqisi2
 623 0014 D3B2     		uxtb	r3, r2
 624              	.LVL57:
 641:Generated_Source\PSoC5/DFB_1.c ****         data3 = ((data2 & 0x80u) == 0x80u) ? 0xFFu : 0x00u;
 625              		.loc 1 641 0
 626 0016 13F0800F 		tst	r3, #128
 627 001a 10D0     		beq	.L58
 628 001c FF22     		movs	r2, #255
 629 001e 16E0     		b	.L57
 630              	.LVL58:
 631              	.L56:
 642:Generated_Source\PSoC5/DFB_1.c ****     }
 643:Generated_Source\PSoC5/DFB_1.c ****     else if (channel == DFB_1_CHANNEL_B)
 632              		.loc 1 643 0
 633 0020 78B9     		cbnz	r0, .L59
 644:Generated_Source\PSoC5/DFB_1.c ****     {
 645:Generated_Source\PSoC5/DFB_1.c ****         data0 = DFB_1_HOLDB_REG;
 634              		.loc 1 645 0
 635 0022 104B     		ldr	r3, .L61+8
 636 0024 1878     		ldrb	r0, [r3]	@ zero_extendqisi2
 637              	.LVL59:
 638 0026 C0B2     		uxtb	r0, r0
 639              	.LVL60:
 646:Generated_Source\PSoC5/DFB_1.c ****         data1 = DFB_1_HOLDBM_REG;
 640              		.loc 1 646 0
 641 0028 0133     		adds	r3, r3, #1
 642 002a 1B78     		ldrb	r3, [r3]	@ zero_extendqisi2
 643 002c D9B2     		uxtb	r1, r3
 644              	.LVL61:
 647:Generated_Source\PSoC5/DFB_1.c ****         data2 = DFB_1_HOLDBH_REG;
 645              		.loc 1 647 0
 646 002e 0E4B     		ldr	r3, .L61+12
 647 0030 1A78     		ldrb	r2, [r3]	@ zero_extendqisi2
 648 0032 D3B2     		uxtb	r3, r2
 649              	.LVL62:
 648:Generated_Source\PSoC5/DFB_1.c ****         data3 = ((data2 & 0x80u) == 0x80u) ? 0xFFu : 0x00u;
ARM GAS  C:\Users\monis\AppData\Local\Temp\ccAw9qWf.s 			page 24


 650              		.loc 1 648 0
 651 0034 13F0800F 		tst	r3, #128
 652 0038 08D0     		beq	.L60
 653 003a FF22     		movs	r2, #255
 654 003c 07E0     		b	.L57
 655              	.L58:
 641:Generated_Source\PSoC5/DFB_1.c ****     }
 656              		.loc 1 641 0
 657 003e 0022     		movs	r2, #0
 658 0040 05E0     		b	.L57
 659              	.LVL63:
 660              	.L59:
 649:Generated_Source\PSoC5/DFB_1.c ****     }
 650:Generated_Source\PSoC5/DFB_1.c ****     else
 651:Generated_Source\PSoC5/DFB_1.c ****     {
 652:Generated_Source\PSoC5/DFB_1.c ****         data0 = 0x00u;
 653:Generated_Source\PSoC5/DFB_1.c ****         data1 = 0x00u;
 654:Generated_Source\PSoC5/DFB_1.c ****         data2 = 0x00u;
 655:Generated_Source\PSoC5/DFB_1.c ****         data3 = 0xFFu;
 661              		.loc 1 655 0
 662 0042 FF22     		movs	r2, #255
 654:Generated_Source\PSoC5/DFB_1.c ****         data3 = 0xFFu;
 663              		.loc 1 654 0
 664 0044 0023     		movs	r3, #0
 653:Generated_Source\PSoC5/DFB_1.c ****         data2 = 0x00u;
 665              		.loc 1 653 0
 666 0046 1946     		mov	r1, r3
 652:Generated_Source\PSoC5/DFB_1.c ****         data1 = 0x00u;
 667              		.loc 1 652 0
 668 0048 1846     		mov	r0, r3
 669              	.LVL64:
 670 004a 00E0     		b	.L57
 671              	.LVL65:
 672              	.L60:
 648:Generated_Source\PSoC5/DFB_1.c ****     }
 673              		.loc 1 648 0
 674 004c 0022     		movs	r2, #0
 675              	.LVL66:
 676              	.L57:
 656:Generated_Source\PSoC5/DFB_1.c ****     }
 657:Generated_Source\PSoC5/DFB_1.c **** 
 658:Generated_Source\PSoC5/DFB_1.c ****     output = ((((((uint32) data3 << 8u) | data2) << 8u) | data1) << 8u) | data0;
 677              		.loc 1 658 0
 678 004e 43EA0223 		orr	r3, r3, r2, lsl #8
 679              	.LVL67:
 680 0052 41EA0323 		orr	r3, r1, r3, lsl #8
 681              	.LVL68:
 659:Generated_Source\PSoC5/DFB_1.c **** 
 660:Generated_Source\PSoC5/DFB_1.c ****     return ((int32) output);
 661:Generated_Source\PSoC5/DFB_1.c **** }
 682              		.loc 1 661 0
 683 0056 40EA0320 		orr	r0, r0, r3, lsl #8
 684              	.LVL69:
 685 005a 7047     		bx	lr
 686              	.L62:
 687              		.align	2
 688              	.L61:
ARM GAS  C:\Users\monis\AppData\Local\Temp\ccAw9qWf.s 			page 25


 689 005c A8C70040 		.word	1073792936
 690 0060 AAC70040 		.word	1073792938
 691 0064 ACC70040 		.word	1073792940
 692 0068 AEC70040 		.word	1073792942
 693              		.cfi_endproc
 694              	.LFE13:
 695              		.size	DFB_1_GetOutputValue, .-DFB_1_GetOutputValue
 696              		.section	.text.DFB_1_SetInterruptMode,"ax",%progbits
 697              		.align	2
 698              		.global	DFB_1_SetInterruptMode
 699              		.thumb
 700              		.thumb_func
 701              		.type	DFB_1_SetInterruptMode, %function
 702              	DFB_1_SetInterruptMode:
 703              	.LFB14:
 662:Generated_Source\PSoC5/DFB_1.c **** 
 663:Generated_Source\PSoC5/DFB_1.c **** 
 664:Generated_Source\PSoC5/DFB_1.c **** /*******************************************************************************
 665:Generated_Source\PSoC5/DFB_1.c **** * Function Name: DFB_1_SetInterruptMode
 666:Generated_Source\PSoC5/DFB_1.c **** ********************************************************************************
 667:Generated_Source\PSoC5/DFB_1.c **** *
 668:Generated_Source\PSoC5/DFB_1.c **** * Summary:
 669:Generated_Source\PSoC5/DFB_1.c **** *  This function assigns the events which will trigger a DFB interrupt to be
 670:Generated_Source\PSoC5/DFB_1.c **** *  triggered.
 671:Generated_Source\PSoC5/DFB_1.c **** *
 672:Generated_Source\PSoC5/DFB_1.c **** * Parameters:
 673:Generated_Source\PSoC5/DFB_1.c **** *  events: Bits [0:5] of events represent the events that trigger DFB
 674:Generated_Source\PSoC5/DFB_1.c **** *          interrupts.
 675:Generated_Source\PSoC5/DFB_1.c **** *    Define                    Description
 676:Generated_Source\PSoC5/DFB_1.c **** *     DFB_1_HOLDA    Interrupt is generated each time new valid data
 677:Generated_Source\PSoC5/DFB_1.c **** *                               is written into the output Holding register A;
 678:Generated_Source\PSoC5/DFB_1.c **** *     DFB_1_HOLDB    Interrupt is generated each time new valid data
 679:Generated_Source\PSoC5/DFB_1.c **** *                               is written into the output Holding register B;
 680:Generated_Source\PSoC5/DFB_1.c **** *     DFB_1_SEMA0    Interrupt is generated each time a '1' is
 681:Generated_Source\PSoC5/DFB_1.c **** *                               written into the semaphore register bit 0;
 682:Generated_Source\PSoC5/DFB_1.c **** *     DFB_1_SEMA1    Interrupt is generated each time a '1' is
 683:Generated_Source\PSoC5/DFB_1.c **** *                               written into the semaphore register bit 1;
 684:Generated_Source\PSoC5/DFB_1.c **** *     DFB_1_SEMA2    Interrupt is generated each time a '1' is
 685:Generated_Source\PSoC5/DFB_1.c **** *                               written into the semaphore register bit 2.
 686:Generated_Source\PSoC5/DFB_1.c **** *
 687:Generated_Source\PSoC5/DFB_1.c **** * Return:
 688:Generated_Source\PSoC5/DFB_1.c **** *  None.
 689:Generated_Source\PSoC5/DFB_1.c **** *
 690:Generated_Source\PSoC5/DFB_1.c **** * Note:
 691:Generated_Source\PSoC5/DFB_1.c **** *  Do not configure semaphore 0 and semaphore 1 for both a DMA request and for
 692:Generated_Source\PSoC5/DFB_1.c **** *  an interrupt event. This is because, after one clock cycle, the system
 693:Generated_Source\PSoC5/DFB_1.c **** *  automatically clears any semaphore that triggered a DMA request.
 694:Generated_Source\PSoC5/DFB_1.c **** *
 695:Generated_Source\PSoC5/DFB_1.c **** *******************************************************************************/
 696:Generated_Source\PSoC5/DFB_1.c **** void DFB_1_SetInterruptMode(uint8 events) 
 697:Generated_Source\PSoC5/DFB_1.c **** {
 704              		.loc 1 697 0
 705              		.cfi_startproc
 706              		@ args = 0, pretend = 0, frame = 0
 707              		@ frame_needed = 0, uses_anonymous_args = 0
 708              		@ link register save eliminated.
 709              	.LVL70:
ARM GAS  C:\Users\monis\AppData\Local\Temp\ccAw9qWf.s 			page 26


 698:Generated_Source\PSoC5/DFB_1.c ****     DFB_1_INT_CTRL_REG = events & DFB_1_EVENT_MASK;
 710              		.loc 1 698 0
 711 0000 00F01F00 		and	r0, r0, #31
 712              	.LVL71:
 713 0004 014B     		ldr	r3, .L64
 714 0006 1870     		strb	r0, [r3]
 715 0008 7047     		bx	lr
 716              	.L65:
 717 000a 00BF     		.align	2
 718              	.L64:
 719 000c 98C70040 		.word	1073792920
 720              		.cfi_endproc
 721              	.LFE14:
 722              		.size	DFB_1_SetInterruptMode, .-DFB_1_SetInterruptMode
 723              		.section	.text.DFB_1_GetInterruptSource,"ax",%progbits
 724              		.align	2
 725              		.global	DFB_1_GetInterruptSource
 726              		.thumb
 727              		.thumb_func
 728              		.type	DFB_1_GetInterruptSource, %function
 729              	DFB_1_GetInterruptSource:
 730              	.LFB15:
 699:Generated_Source\PSoC5/DFB_1.c **** }
 700:Generated_Source\PSoC5/DFB_1.c **** 
 701:Generated_Source\PSoC5/DFB_1.c **** 
 702:Generated_Source\PSoC5/DFB_1.c **** /*******************************************************************************
 703:Generated_Source\PSoC5/DFB_1.c **** * Function Name: DFB_1_GetInterruptSource
 704:Generated_Source\PSoC5/DFB_1.c **** ********************************************************************************
 705:Generated_Source\PSoC5/DFB_1.c **** *
 706:Generated_Source\PSoC5/DFB_1.c **** * Summary:
 707:Generated_Source\PSoC5/DFB_1.c **** *  This function looks at the DFB_1_SR register to see which
 708:Generated_Source\PSoC5/DFB_1.c **** *  interrupt sources have been triggered.
 709:Generated_Source\PSoC5/DFB_1.c **** *
 710:Generated_Source\PSoC5/DFB_1.c **** * Parameters:
 711:Generated_Source\PSoC5/DFB_1.c **** *  None.
 712:Generated_Source\PSoC5/DFB_1.c **** *
 713:Generated_Source\PSoC5/DFB_1.c **** * Return:
 714:Generated_Source\PSoC5/DFB_1.c **** *  uint8 value in which bits [0:5] of represent the events that triggered the
 715:Generated_Source\PSoC5/DFB_1.c **** *  DFB interrupt.
 716:Generated_Source\PSoC5/DFB_1.c **** *    Define                    Description
 717:Generated_Source\PSoC5/DFB_1.c **** *     DFB_1_HOLDA    Holding register A is a source of the current
 718:Generated_Source\PSoC5/DFB_1.c **** *                               interrupt;
 719:Generated_Source\PSoC5/DFB_1.c **** *     DFB_1_HOLDB    Holding register B is a source of the current
 720:Generated_Source\PSoC5/DFB_1.c **** *                               interrupt;
 721:Generated_Source\PSoC5/DFB_1.c **** *     DFB_1_SEMA0    Semaphore register bit 0 is a source of the
 722:Generated_Source\PSoC5/DFB_1.c **** *                               current interrupt;
 723:Generated_Source\PSoC5/DFB_1.c **** *     DFB_1_SEMA1    Semaphore register bit 1 is a source of the
 724:Generated_Source\PSoC5/DFB_1.c **** *                               current interrupt;
 725:Generated_Source\PSoC5/DFB_1.c **** *     DFB_1_SEMA2    Semaphore register bit 2 is a source of the
 726:Generated_Source\PSoC5/DFB_1.c **** *                               current interrupt.
 727:Generated_Source\PSoC5/DFB_1.c **** *
 728:Generated_Source\PSoC5/DFB_1.c **** *******************************************************************************/
 729:Generated_Source\PSoC5/DFB_1.c **** uint8 DFB_1_GetInterruptSource(void) 
 730:Generated_Source\PSoC5/DFB_1.c **** {
 731              		.loc 1 730 0
 732              		.cfi_startproc
 733              		@ args = 0, pretend = 0, frame = 0
ARM GAS  C:\Users\monis\AppData\Local\Temp\ccAw9qWf.s 			page 27


 734              		@ frame_needed = 0, uses_anonymous_args = 0
 735              		@ link register save eliminated.
 731:Generated_Source\PSoC5/DFB_1.c ****     /* Shifts the event bits down to [0:5] */
 732:Generated_Source\PSoC5/DFB_1.c ****     return ((uint8) (DFB_1_SR_REG >> DFB_1_SR_EVENT_SHIFT));
 736              		.loc 1 732 0
 737 0000 014B     		ldr	r3, .L67
 738 0002 1878     		ldrb	r0, [r3]	@ zero_extendqisi2
 733:Generated_Source\PSoC5/DFB_1.c **** }
 739              		.loc 1 733 0
 740 0004 C008     		lsrs	r0, r0, #3
 741 0006 7047     		bx	lr
 742              	.L68:
 743              		.align	2
 744              	.L67:
 745 0008 84C70040 		.word	1073792900
 746              		.cfi_endproc
 747              	.LFE15:
 748              		.size	DFB_1_GetInterruptSource, .-DFB_1_GetInterruptSource
 749              		.section	.text.DFB_1_ClearInterrupt,"ax",%progbits
 750              		.align	2
 751              		.global	DFB_1_ClearInterrupt
 752              		.thumb
 753              		.thumb_func
 754              		.type	DFB_1_ClearInterrupt, %function
 755              	DFB_1_ClearInterrupt:
 756              	.LFB16:
 734:Generated_Source\PSoC5/DFB_1.c **** 
 735:Generated_Source\PSoC5/DFB_1.c **** 
 736:Generated_Source\PSoC5/DFB_1.c **** /*******************************************************************************
 737:Generated_Source\PSoC5/DFB_1.c **** * Function Name: DFB_1_ClearInterrupt
 738:Generated_Source\PSoC5/DFB_1.c **** ********************************************************************************
 739:Generated_Source\PSoC5/DFB_1.c **** *
 740:Generated_Source\PSoC5/DFB_1.c **** * Summary:
 741:Generated_Source\PSoC5/DFB_1.c **** *  This function clears the interrupt request.
 742:Generated_Source\PSoC5/DFB_1.c **** *
 743:Generated_Source\PSoC5/DFB_1.c **** * Parameters:
 744:Generated_Source\PSoC5/DFB_1.c **** *  interruptMask: Mask of interrupts to clear.
 745:Generated_Source\PSoC5/DFB_1.c **** *    Define                    Description
 746:Generated_Source\PSoC5/DFB_1.c **** *     DFB_1_HOLDA    Clear interrupt from Holding register A.
 747:Generated_Source\PSoC5/DFB_1.c **** *                               (Reading the Holding register A also clears this
 748:Generated_Source\PSoC5/DFB_1.c **** *                                bit);
 749:Generated_Source\PSoC5/DFB_1.c **** *     DFB_1_HOLDB    Clear interrupt from Holding register B.
 750:Generated_Source\PSoC5/DFB_1.c **** *                               (Reading the Holding register B also clears this
 751:Generated_Source\PSoC5/DFB_1.c **** *                                bit);
 752:Generated_Source\PSoC5/DFB_1.c **** *     DFB_1_SEMA0    Clear interrupt from semaphore register bit 0;
 753:Generated_Source\PSoC5/DFB_1.c **** *     DFB_1_SEMA1    Clear interrupt from semaphore register bit 1;
 754:Generated_Source\PSoC5/DFB_1.c **** *     DFB_1_SEMA2    Clear interrupt from semaphore register bit 2.
 755:Generated_Source\PSoC5/DFB_1.c **** *
 756:Generated_Source\PSoC5/DFB_1.c **** * Return:
 757:Generated_Source\PSoC5/DFB_1.c **** *  None.
 758:Generated_Source\PSoC5/DFB_1.c **** *
 759:Generated_Source\PSoC5/DFB_1.c **** * Note:
 760:Generated_Source\PSoC5/DFB_1.c **** *  Clearing semaphore interrupts also clears semaphore bits.
 761:Generated_Source\PSoC5/DFB_1.c **** *
 762:Generated_Source\PSoC5/DFB_1.c **** *******************************************************************************/
 763:Generated_Source\PSoC5/DFB_1.c **** void DFB_1_ClearInterrupt(uint8 interruptMask) 
 764:Generated_Source\PSoC5/DFB_1.c **** {
ARM GAS  C:\Users\monis\AppData\Local\Temp\ccAw9qWf.s 			page 28


 757              		.loc 1 764 0
 758              		.cfi_startproc
 759              		@ args = 0, pretend = 0, frame = 0
 760              		@ frame_needed = 0, uses_anonymous_args = 0
 761              		@ link register save eliminated.
 762              	.LVL72:
 765:Generated_Source\PSoC5/DFB_1.c ****     DFB_1_SR_REG &= (uint8) (interruptMask << DFB_1_SR_EVENT_SHIFT);
 763              		.loc 1 765 0
 764 0000 024A     		ldr	r2, .L70
 765 0002 1378     		ldrb	r3, [r2]	@ zero_extendqisi2
 766 0004 03EAC000 		and	r0, r3, r0, lsl #3
 767              	.LVL73:
 768 0008 1070     		strb	r0, [r2]
 769 000a 7047     		bx	lr
 770              	.L71:
 771              		.align	2
 772              	.L70:
 773 000c 84C70040 		.word	1073792900
 774              		.cfi_endproc
 775              	.LFE16:
 776              		.size	DFB_1_ClearInterrupt, .-DFB_1_ClearInterrupt
 777              		.section	.text.DFB_1_SetDMAMode,"ax",%progbits
 778              		.align	2
 779              		.global	DFB_1_SetDMAMode
 780              		.thumb
 781              		.thumb_func
 782              		.type	DFB_1_SetDMAMode, %function
 783              	DFB_1_SetDMAMode:
 784              	.LFB17:
 766:Generated_Source\PSoC5/DFB_1.c **** }
 767:Generated_Source\PSoC5/DFB_1.c **** 
 768:Generated_Source\PSoC5/DFB_1.c **** 
 769:Generated_Source\PSoC5/DFB_1.c **** /*******************************************************************************
 770:Generated_Source\PSoC5/DFB_1.c **** * Function Name: DFB_1_SetDMAMode
 771:Generated_Source\PSoC5/DFB_1.c **** ********************************************************************************
 772:Generated_Source\PSoC5/DFB_1.c **** *
 773:Generated_Source\PSoC5/DFB_1.c **** * Summary:
 774:Generated_Source\PSoC5/DFB_1.c **** *  This function assigns the events that trigger a DMA request for the DFB.
 775:Generated_Source\PSoC5/DFB_1.c **** *  Two different DMA requests that can be triggered.
 776:Generated_Source\PSoC5/DFB_1.c **** *
 777:Generated_Source\PSoC5/DFB_1.c **** * Parameters:
 778:Generated_Source\PSoC5/DFB_1.c **** *  events: A set of 4 bits which configure what event, if any, triggers a DMA
 779:Generated_Source\PSoC5/DFB_1.c **** *          request for the DFB.
 780:Generated_Source\PSoC5/DFB_1.c **** *   DMA Request 1:
 781:Generated_Source\PSoC5/DFB_1.c **** *    Define                                 Description
 782:Generated_Source\PSoC5/DFB_1.c **** *    DFB_1_DMAREQ1_DISABLED       No request will be generated;
 783:Generated_Source\PSoC5/DFB_1.c **** *    DFB_1_DMAREQ1_HOLDA          Output value ready in the holding
 784:Generated_Source\PSoC5/DFB_1.c ****                                              register on channel A;
 785:Generated_Source\PSoC5/DFB_1.c **** *    DFB_1_DMAREQ1_SEM0           Semaphore 0;
 786:Generated_Source\PSoC5/DFB_1.c **** *    DFB_1_DMAREQ1_SEM1           Sempahore 1.
 787:Generated_Source\PSoC5/DFB_1.c **** *   DMA Request 2:
 788:Generated_Source\PSoC5/DFB_1.c **** *    Define                                 Description
 789:Generated_Source\PSoC5/DFB_1.c **** *    DFB_1_DMAREQ2_DISABLED       No request will be generated;
 790:Generated_Source\PSoC5/DFB_1.c **** *    DFB_1_DMAREQ2_HOLDB          Output value ready in the holding
 791:Generated_Source\PSoC5/DFB_1.c ****                                              register on channel B;
 792:Generated_Source\PSoC5/DFB_1.c **** *    DFB_1_DMAREQ2_SEM0           Semaphore 0;
 793:Generated_Source\PSoC5/DFB_1.c **** *    DFB_1_DMAREQ2_SEM1           Sempahore 1.
ARM GAS  C:\Users\monis\AppData\Local\Temp\ccAw9qWf.s 			page 29


 794:Generated_Source\PSoC5/DFB_1.c **** *
 795:Generated_Source\PSoC5/DFB_1.c **** * Return:
 796:Generated_Source\PSoC5/DFB_1.c **** *  None.
 797:Generated_Source\PSoC5/DFB_1.c **** *
 798:Generated_Source\PSoC5/DFB_1.c **** * Note:
 799:Generated_Source\PSoC5/DFB_1.c **** *  Do not configure semaphore 0 and semaphore 1 for both a DMA request and for
 800:Generated_Source\PSoC5/DFB_1.c **** *  an interrupt event. This is because, after one clock cycle, the system
 801:Generated_Source\PSoC5/DFB_1.c **** *  automatically clears any semaphore that triggered a DMA request.
 802:Generated_Source\PSoC5/DFB_1.c **** *
 803:Generated_Source\PSoC5/DFB_1.c **** *******************************************************************************/
 804:Generated_Source\PSoC5/DFB_1.c **** void DFB_1_SetDMAMode(uint8 events) 
 805:Generated_Source\PSoC5/DFB_1.c **** {
 785              		.loc 1 805 0
 786              		.cfi_startproc
 787              		@ args = 0, pretend = 0, frame = 0
 788              		@ frame_needed = 0, uses_anonymous_args = 0
 789              		@ link register save eliminated.
 790              	.LVL74:
 806:Generated_Source\PSoC5/DFB_1.c ****     DFB_1_DMA_CTRL_REG = events & DFB_1_DMA_CTRL_MASK;
 791              		.loc 1 806 0
 792 0000 00F00F00 		and	r0, r0, #15
 793              	.LVL75:
 794 0004 014B     		ldr	r3, .L73
 795 0006 1870     		strb	r0, [r3]
 796 0008 7047     		bx	lr
 797              	.L74:
 798 000a 00BF     		.align	2
 799              	.L73:
 800 000c 9CC70040 		.word	1073792924
 801              		.cfi_endproc
 802              	.LFE17:
 803              		.size	DFB_1_SetDMAMode, .-DFB_1_SetDMAMode
 804              		.section	.text.DFB_1_SetSemaphores,"ax",%progbits
 805              		.align	2
 806              		.global	DFB_1_SetSemaphores
 807              		.thumb
 808              		.thumb_func
 809              		.type	DFB_1_SetSemaphores, %function
 810              	DFB_1_SetSemaphores:
 811              	.LFB18:
 807:Generated_Source\PSoC5/DFB_1.c **** }
 808:Generated_Source\PSoC5/DFB_1.c **** 
 809:Generated_Source\PSoC5/DFB_1.c **** 
 810:Generated_Source\PSoC5/DFB_1.c **** /*******************************************************************************
 811:Generated_Source\PSoC5/DFB_1.c **** * Function Name: DFB_1_SetSemaphore
 812:Generated_Source\PSoC5/DFB_1.c **** ********************************************************************************
 813:Generated_Source\PSoC5/DFB_1.c **** *
 814:Generated_Source\PSoC5/DFB_1.c **** * Summary:
 815:Generated_Source\PSoC5/DFB_1.c **** *  This function sets semaphores specified with a 1.
 816:Generated_Source\PSoC5/DFB_1.c **** *
 817:Generated_Source\PSoC5/DFB_1.c **** * Parameters:
 818:Generated_Source\PSoC5/DFB_1.c **** *  mask: mask specifying the bits to set.
 819:Generated_Source\PSoC5/DFB_1.c **** *    Define                          Description
 820:Generated_Source\PSoC5/DFB_1.c **** *     DFB_1_SEMAPHORE0     Semaphore 0;
 821:Generated_Source\PSoC5/DFB_1.c **** *     DFB_1_SEMAPHORE1     Semaphore 1;
 822:Generated_Source\PSoC5/DFB_1.c **** *     DFB_1_SEMAPHORE2     Semaphore 2.
 823:Generated_Source\PSoC5/DFB_1.c **** *
ARM GAS  C:\Users\monis\AppData\Local\Temp\ccAw9qWf.s 			page 30


 824:Generated_Source\PSoC5/DFB_1.c **** * Return:
 825:Generated_Source\PSoC5/DFB_1.c **** *  None.
 826:Generated_Source\PSoC5/DFB_1.c **** *
 827:Generated_Source\PSoC5/DFB_1.c **** *******************************************************************************/
 828:Generated_Source\PSoC5/DFB_1.c **** void DFB_1_SetSemaphores(uint8 mask) 
 829:Generated_Source\PSoC5/DFB_1.c **** {
 812              		.loc 1 829 0
 813              		.cfi_startproc
 814              		@ args = 0, pretend = 0, frame = 0
 815              		@ frame_needed = 0, uses_anonymous_args = 0
 816              		@ link register save eliminated.
 817              	.LVL76:
 830:Generated_Source\PSoC5/DFB_1.c ****     DFB_1_SEM_REG = (uint8) ((mask & DFB_1_SEM_MASK) << DFB_1_SEM_ENABLE_SHIFT) |
 818              		.loc 1 830 0
 819 0000 0001     		lsls	r0, r0, #4
 820              	.LVL77:
 821 0002 00F07000 		and	r0, r0, #112
 822 0006 40F00700 		orr	r0, r0, #7
 823 000a 014B     		ldr	r3, .L76
 824 000c 1870     		strb	r0, [r3]
 825 000e 7047     		bx	lr
 826              	.L77:
 827              		.align	2
 828              	.L76:
 829 0010 90C70040 		.word	1073792912
 830              		.cfi_endproc
 831              	.LFE18:
 832              		.size	DFB_1_SetSemaphores, .-DFB_1_SetSemaphores
 833              		.section	.text.DFB_1_GetSemaphores,"ax",%progbits
 834              		.align	2
 835              		.global	DFB_1_GetSemaphores
 836              		.thumb
 837              		.thumb_func
 838              		.type	DFB_1_GetSemaphores, %function
 839              	DFB_1_GetSemaphores:
 840              	.LFB19:
 831:Generated_Source\PSoC5/DFB_1.c ****                                  DFB_1_SEM_MASK;
 832:Generated_Source\PSoC5/DFB_1.c **** }
 833:Generated_Source\PSoC5/DFB_1.c **** 
 834:Generated_Source\PSoC5/DFB_1.c **** 
 835:Generated_Source\PSoC5/DFB_1.c **** /*******************************************************************************
 836:Generated_Source\PSoC5/DFB_1.c **** *  Function Name: DFB_1_GetSempahores
 837:Generated_Source\PSoC5/DFB_1.c **** ********************************************************************************
 838:Generated_Source\PSoC5/DFB_1.c **** *
 839:Generated_Source\PSoC5/DFB_1.c **** * Summary:
 840:Generated_Source\PSoC5/DFB_1.c **** *  This function checks the current status of the DFB semaphores and return that
 841:Generated_Source\PSoC5/DFB_1.c **** *  value.
 842:Generated_Source\PSoC5/DFB_1.c **** *
 843:Generated_Source\PSoC5/DFB_1.c **** * Parameters:
 844:Generated_Source\PSoC5/DFB_1.c **** *  None.
 845:Generated_Source\PSoC5/DFB_1.c **** *
 846:Generated_Source\PSoC5/DFB_1.c **** * Return:
 847:Generated_Source\PSoC5/DFB_1.c **** *  uint8 value between 0 and 7 where bit 0 represents semaphore 0 and so on.
 848:Generated_Source\PSoC5/DFB_1.c **** *    Define                          Description
 849:Generated_Source\PSoC5/DFB_1.c **** *     DFB_1_SEMAPHORE0     Semaphore 0;
 850:Generated_Source\PSoC5/DFB_1.c **** *     DFB_1_SEMAPHORE1     Semaphore 1;
 851:Generated_Source\PSoC5/DFB_1.c **** *     DFB_1_SEMAPHORE2     Semaphore 2.
ARM GAS  C:\Users\monis\AppData\Local\Temp\ccAw9qWf.s 			page 31


 852:Generated_Source\PSoC5/DFB_1.c **** *
 853:Generated_Source\PSoC5/DFB_1.c **** *******************************************************************************/
 854:Generated_Source\PSoC5/DFB_1.c **** uint8 DFB_1_GetSemaphores(void) 
 855:Generated_Source\PSoC5/DFB_1.c **** {
 841              		.loc 1 855 0
 842              		.cfi_startproc
 843              		@ args = 0, pretend = 0, frame = 0
 844              		@ frame_needed = 0, uses_anonymous_args = 0
 845              		@ link register save eliminated.
 856:Generated_Source\PSoC5/DFB_1.c ****     /* Masked the valide bits in case the reserved bits in SEM_REG [4 and 7] get used for something
 857:Generated_Source\PSoC5/DFB_1.c ****     return (DFB_1_SEM_REG & DFB_1_SEM_MASK);
 846              		.loc 1 857 0
 847 0000 024B     		ldr	r3, .L79
 848 0002 1878     		ldrb	r0, [r3]	@ zero_extendqisi2
 858:Generated_Source\PSoC5/DFB_1.c **** }
 849              		.loc 1 858 0
 850 0004 00F00700 		and	r0, r0, #7
 851 0008 7047     		bx	lr
 852              	.L80:
 853 000a 00BF     		.align	2
 854              	.L79:
 855 000c 90C70040 		.word	1073792912
 856              		.cfi_endproc
 857              	.LFE19:
 858              		.size	DFB_1_GetSemaphores, .-DFB_1_GetSemaphores
 859              		.section	.text.DFB_1_ClearSemaphores,"ax",%progbits
 860              		.align	2
 861              		.global	DFB_1_ClearSemaphores
 862              		.thumb
 863              		.thumb_func
 864              		.type	DFB_1_ClearSemaphores, %function
 865              	DFB_1_ClearSemaphores:
 866              	.LFB20:
 859:Generated_Source\PSoC5/DFB_1.c **** 
 860:Generated_Source\PSoC5/DFB_1.c **** 
 861:Generated_Source\PSoC5/DFB_1.c **** /*******************************************************************************
 862:Generated_Source\PSoC5/DFB_1.c **** *  Function Name: DFB_1_ClearSemaphore
 863:Generated_Source\PSoC5/DFB_1.c **** ********************************************************************************
 864:Generated_Source\PSoC5/DFB_1.c **** *
 865:Generated_Source\PSoC5/DFB_1.c **** * Summary:
 866:Generated_Source\PSoC5/DFB_1.c **** *  This function clears semaphore bits specified with a 1.
 867:Generated_Source\PSoC5/DFB_1.c **** *
 868:Generated_Source\PSoC5/DFB_1.c **** * Parameters:
 869:Generated_Source\PSoC5/DFB_1.c **** *  mask: mask specifying the bits to clear.
 870:Generated_Source\PSoC5/DFB_1.c **** *    Define                          Description
 871:Generated_Source\PSoC5/DFB_1.c **** *     DFB_1_SEMAPHORE0     Semaphore 0;
 872:Generated_Source\PSoC5/DFB_1.c **** *     DFB_1_SEMAPHORE1     Semaphore 1;
 873:Generated_Source\PSoC5/DFB_1.c **** *     DFB_1_SEMAPHORE2     Semaphore 2.
 874:Generated_Source\PSoC5/DFB_1.c **** *
 875:Generated_Source\PSoC5/DFB_1.c **** * Return:
 876:Generated_Source\PSoC5/DFB_1.c **** *  None.
 877:Generated_Source\PSoC5/DFB_1.c **** *
 878:Generated_Source\PSoC5/DFB_1.c **** *******************************************************************************/
 879:Generated_Source\PSoC5/DFB_1.c **** void DFB_1_ClearSemaphores(uint8 mask) 
 880:Generated_Source\PSoC5/DFB_1.c **** {
 867              		.loc 1 880 0
 868              		.cfi_startproc
ARM GAS  C:\Users\monis\AppData\Local\Temp\ccAw9qWf.s 			page 32


 869              		@ args = 0, pretend = 0, frame = 0
 870              		@ frame_needed = 0, uses_anonymous_args = 0
 871              		@ link register save eliminated.
 872              	.LVL78:
 881:Generated_Source\PSoC5/DFB_1.c ****     /* Writes the semaphore register: Clears the semaphores masked */
 882:Generated_Source\PSoC5/DFB_1.c ****     DFB_1_SEM_REG = (uint8) ((mask & DFB_1_SEM_MASK) << DFB_1_SEM_ENABLE_SHIFT);
 873              		.loc 1 882 0
 874 0000 0001     		lsls	r0, r0, #4
 875              	.LVL79:
 876 0002 00F07000 		and	r0, r0, #112
 877 0006 014B     		ldr	r3, .L82
 878 0008 1870     		strb	r0, [r3]
 879 000a 7047     		bx	lr
 880              	.L83:
 881              		.align	2
 882              	.L82:
 883 000c 90C70040 		.word	1073792912
 884              		.cfi_endproc
 885              	.LFE20:
 886              		.size	DFB_1_ClearSemaphores, .-DFB_1_ClearSemaphores
 887              		.section	.text.DFB_1_SetOutput1Source,"ax",%progbits
 888              		.align	2
 889              		.global	DFB_1_SetOutput1Source
 890              		.thumb
 891              		.thumb_func
 892              		.type	DFB_1_SetOutput1Source, %function
 893              	DFB_1_SetOutput1Source:
 894              	.LFB21:
 883:Generated_Source\PSoC5/DFB_1.c **** }
 884:Generated_Source\PSoC5/DFB_1.c **** 
 885:Generated_Source\PSoC5/DFB_1.c **** 
 886:Generated_Source\PSoC5/DFB_1.c **** /*******************************************************************************
 887:Generated_Source\PSoC5/DFB_1.c **** * Function Name: DFB_1_SetOutput1Source
 888:Generated_Source\PSoC5/DFB_1.c **** ********************************************************************************
 889:Generated_Source\PSoC5/DFB_1.c **** *
 890:Generated_Source\PSoC5/DFB_1.c **** * Summary:
 891:Generated_Source\PSoC5/DFB_1.c **** *  This function allows you to choose which internal signal will be mapped to
 892:Generated_Source\PSoC5/DFB_1.c **** *  the DSI output 1.
 893:Generated_Source\PSoC5/DFB_1.c **** *
 894:Generated_Source\PSoC5/DFB_1.c **** * Parameters:
 895:Generated_Source\PSoC5/DFB_1.c **** *  source: internal signal which is mapped to the output global signal 1.
 896:Generated_Source\PSoC5/DFB_1.c **** *   Signal                      Description
 897:Generated_Source\PSoC5/DFB_1.c **** *    DFB_1_DFB_RUN    DFB RUN Bit. This is the same bit as the RUN
 898:Generated_Source\PSoC5/DFB_1.c **** *                                bit in the DFB_CR register.
 899:Generated_Source\PSoC5/DFB_1.c **** *    DFB_1_SEM0       Semaphore Bit 0.
 900:Generated_Source\PSoC5/DFB_1.c **** *    DFB_1_SEM1       Semaphore Bit 1.
 901:Generated_Source\PSoC5/DFB_1.c **** *    DFB_1_DFB_INTR   DFB Interrupt. This is the same signal as the
 902:Generated_Source\PSoC5/DFB_1.c **** *                                primary DFB Interrupt output signal.
 903:Generated_Source\PSoC5/DFB_1.c **** *
 904:Generated_Source\PSoC5/DFB_1.c **** * Return:
 905:Generated_Source\PSoC5/DFB_1.c **** *  None.
 906:Generated_Source\PSoC5/DFB_1.c **** *
 907:Generated_Source\PSoC5/DFB_1.c **** *******************************************************************************/
 908:Generated_Source\PSoC5/DFB_1.c **** void DFB_1_SetOutput1Source(uint8 source) 
 909:Generated_Source\PSoC5/DFB_1.c **** {
 895              		.loc 1 909 0
 896              		.cfi_startproc
ARM GAS  C:\Users\monis\AppData\Local\Temp\ccAw9qWf.s 			page 33


 897              		@ args = 0, pretend = 0, frame = 0
 898              		@ frame_needed = 0, uses_anonymous_args = 0
 899              		@ link register save eliminated.
 900              	.LVL80:
 910:Generated_Source\PSoC5/DFB_1.c ****     DFB_1_DSI_CTRL_REG = (DFB_1_DSI_CTRL_REG & DFB_1_DFB_GBL1_OUT_MASK) | source;
 901              		.loc 1 910 0
 902 0000 034A     		ldr	r2, .L85
 903 0002 1378     		ldrb	r3, [r2]	@ zero_extendqisi2
 904 0004 03F0FC03 		and	r3, r3, #252
 905 0008 1843     		orrs	r0, r0, r3
 906              	.LVL81:
 907 000a 1070     		strb	r0, [r2]
 908 000c 7047     		bx	lr
 909              	.L86:
 910 000e 00BF     		.align	2
 911              	.L85:
 912 0010 94C70040 		.word	1073792916
 913              		.cfi_endproc
 914              	.LFE21:
 915              		.size	DFB_1_SetOutput1Source, .-DFB_1_SetOutput1Source
 916              		.section	.text.DFB_1_SetOutput2Source,"ax",%progbits
 917              		.align	2
 918              		.global	DFB_1_SetOutput2Source
 919              		.thumb
 920              		.thumb_func
 921              		.type	DFB_1_SetOutput2Source, %function
 922              	DFB_1_SetOutput2Source:
 923              	.LFB22:
 911:Generated_Source\PSoC5/DFB_1.c **** }
 912:Generated_Source\PSoC5/DFB_1.c **** 
 913:Generated_Source\PSoC5/DFB_1.c **** 
 914:Generated_Source\PSoC5/DFB_1.c **** /*******************************************************************************
 915:Generated_Source\PSoC5/DFB_1.c **** * Function Name: DFB_1_SetOutput2Source
 916:Generated_Source\PSoC5/DFB_1.c **** ********************************************************************************
 917:Generated_Source\PSoC5/DFB_1.c **** *
 918:Generated_Source\PSoC5/DFB_1.c **** * Summary:
 919:Generated_Source\PSoC5/DFB_1.c **** *  This function allows you to choose which internal signal will be mapped to
 920:Generated_Source\PSoC5/DFB_1.c **** *  the DSI output 2.
 921:Generated_Source\PSoC5/DFB_1.c **** *
 922:Generated_Source\PSoC5/DFB_1.c **** * Parameters:
 923:Generated_Source\PSoC5/DFB_1.c **** *  source: internal signal which is mapped to the output global signal 2.
 924:Generated_Source\PSoC5/DFB_1.c **** *   Signal                      Description
 925:Generated_Source\PSoC5/DFB_1.c **** *    DFB_1_SEM2       Semaphore Bit 2.
 926:Generated_Source\PSoC5/DFB_1.c **** *    DFB_1_DPSIGN     Datapath Sign. This signal asserts anytime the
 927:Generated_Source\PSoC5/DFB_1.c **** *                                 output of the ALU in the Datapath unit is
 928:Generated_Source\PSoC5/DFB_1.c **** *                                 negative. It will remain high for each cycle
 929:Generated_Source\PSoC5/DFB_1.c **** *                                 this condition is true.
 930:Generated_Source\PSoC5/DFB_1.c **** *    DFB_1_DPTHRESH   Datapath Threshold Crossed. This signal
 931:Generated_Source\PSoC5/DFB_1.c **** *                                 asserts anytime the threshold of 0 is crossed
 932:Generated_Source\PSoC5/DFB_1.c **** *                                 in the ALU when one of the following
 933:Generated_Source\PSoC5/DFB_1.c **** *                                 instructions is executing: TDECA, TSUBA,
 934:Generated_Source\PSoC5/DFB_1.c **** *                                 TSUBB, TADDABSA, TADDABSB. It will remain high
 935:Generated_Source\PSoC5/DFB_1.c **** *                                 for each cycle this condition is true.
 936:Generated_Source\PSoC5/DFB_1.c **** *    DFB_1_DPEQ       Datapath ALU=0. This signal asserts high when
 937:Generated_Source\PSoC5/DFB_1.c **** *                                 the output of the ALU in the Datapath unit
 938:Generated_Source\PSoC5/DFB_1.c **** *                                 equals 0 and one of the following ALU commands
 939:Generated_Source\PSoC5/DFB_1.c **** *                                 is executing: TDECA, TSUBA, TSUBB, TADDABSA,
ARM GAS  C:\Users\monis\AppData\Local\Temp\ccAw9qWf.s 			page 34


 940:Generated_Source\PSoC5/DFB_1.c **** *                                 TADDABSB. It will remain high for each cycle
 941:Generated_Source\PSoC5/DFB_1.c **** *                                 this condition is true.
 942:Generated_Source\PSoC5/DFB_1.c **** *
 943:Generated_Source\PSoC5/DFB_1.c **** * Return:
 944:Generated_Source\PSoC5/DFB_1.c **** *  None.
 945:Generated_Source\PSoC5/DFB_1.c **** *
 946:Generated_Source\PSoC5/DFB_1.c **** *******************************************************************************/
 947:Generated_Source\PSoC5/DFB_1.c **** void DFB_1_SetOutput2Source(uint8 source) 
 948:Generated_Source\PSoC5/DFB_1.c **** {
 924              		.loc 1 948 0
 925              		.cfi_startproc
 926              		@ args = 0, pretend = 0, frame = 0
 927              		@ frame_needed = 0, uses_anonymous_args = 0
 928              		@ link register save eliminated.
 929              	.LVL82:
 949:Generated_Source\PSoC5/DFB_1.c ****     DFB_1_DSI_CTRL_REG = (DFB_1_DSI_CTRL_REG & DFB_1_DFB_GBL2_OUT_MASK) | source;
 930              		.loc 1 949 0
 931 0000 034A     		ldr	r2, .L88
 932 0002 1378     		ldrb	r3, [r2]	@ zero_extendqisi2
 933 0004 03F0F303 		and	r3, r3, #243
 934 0008 1843     		orrs	r0, r0, r3
 935              	.LVL83:
 936 000a 1070     		strb	r0, [r2]
 937 000c 7047     		bx	lr
 938              	.L89:
 939 000e 00BF     		.align	2
 940              	.L88:
 941 0010 94C70040 		.word	1073792916
 942              		.cfi_endproc
 943              	.LFE22:
 944              		.size	DFB_1_SetOutput2Source, .-DFB_1_SetOutput2Source
 945              		.section	.text.DFB_1_Init,"ax",%progbits
 946              		.align	2
 947              		.global	DFB_1_Init
 948              		.thumb
 949              		.thumb_func
 950              		.type	DFB_1_Init, %function
 951              	DFB_1_Init:
 952              	.LFB2:
 121:Generated_Source\PSoC5/DFB_1.c ****     uint8 enableInterrupts;
 953              		.loc 1 121 0
 954              		.cfi_startproc
 955              		@ args = 0, pretend = 0, frame = 0
 956              		@ frame_needed = 0, uses_anonymous_args = 0
 957 0000 2DE9F84F 		push	{r3, r4, r5, r6, r7, r8, r9, r10, fp, lr}
 958              		.cfi_def_cfa_offset 40
 959              		.cfi_offset 3, -40
 960              		.cfi_offset 4, -36
 961              		.cfi_offset 5, -32
 962              		.cfi_offset 6, -28
 963              		.cfi_offset 7, -24
 964              		.cfi_offset 8, -20
 965              		.cfi_offset 9, -16
 966              		.cfi_offset 10, -12
 967              		.cfi_offset 11, -8
 968              		.cfi_offset 14, -4
 124:Generated_Source\PSoC5/DFB_1.c **** 
ARM GAS  C:\Users\monis\AppData\Local\Temp\ccAw9qWf.s 			page 35


 969              		.loc 1 124 0
 970 0004 FFF7FEFF 		bl	CyEnterCriticalSection
 971              	.LVL84:
 127:Generated_Source\PSoC5/DFB_1.c ****     /* Enables DFB block in Alternate Active (Standby) mode */
 972              		.loc 1 127 0
 973 0008 344A     		ldr	r2, .L92
 974 000a 1378     		ldrb	r3, [r2]	@ zero_extendqisi2
 975 000c 43F01003 		orr	r3, r3, #16
 976 0010 1370     		strb	r3, [r2]
 129:Generated_Source\PSoC5/DFB_1.c **** 
 977              		.loc 1 129 0
 978 0012 1032     		adds	r2, r2, #16
 979 0014 1378     		ldrb	r3, [r2]	@ zero_extendqisi2
 980 0016 43F01003 		orr	r3, r3, #16
 981 001a 1370     		strb	r3, [r2]
 131:Generated_Source\PSoC5/DFB_1.c **** 
 982              		.loc 1 131 0
 983 001c FFF7FEFF 		bl	CyExitCriticalSection
 984              	.LVL85:
 134:Generated_Source\PSoC5/DFB_1.c ****     /* Powers up the DFB RAMS */
 985              		.loc 1 134 0
 986 0020 2F4A     		ldr	r2, .L92+4
 987 0022 1378     		ldrb	r3, [r2]	@ zero_extendqisi2
 988 0024 03F0FE03 		and	r3, r3, #254
 989 0028 1370     		strb	r3, [r2]
 136:Generated_Source\PSoC5/DFB_1.c ****     /* Puts DFB RAM on the bus */
 990              		.loc 1 136 0
 991 002a 3F23     		movs	r3, #63
 992 002c 0832     		adds	r2, r2, #8
 993 002e 1370     		strb	r3, [r2]
 138:Generated_Source\PSoC5/DFB_1.c **** 
 994              		.loc 1 138 0
 995 0030 2C4D     		ldr	r5, .L92+8
 996 0032 2B70     		strb	r3, [r5]
 141:Generated_Source\PSoC5/DFB_1.c ****     DFB_1_ZeroReg32(DFB_1_DB_RAM_PTR, DFB_1_DB_RAM_SIZE);
 997              		.loc 1 141 0
 998 0034 DFF8D080 		ldr	r8, .L92+44
 999 0038 8021     		movs	r1, #128
 1000 003a 4046     		mov	r0, r8
 1001 003c FFF7FEFF 		bl	DFB_1_ZeroReg32
 1002              	.LVL86:
 142:Generated_Source\PSoC5/DFB_1.c ****     DFB_1_ZeroReg32(DFB_1_CSA_RAM_PTR, DFB_1_CSA_RAM_SIZE);
 1003              		.loc 1 142 0
 1004 0040 294F     		ldr	r7, .L92+12
 1005 0042 8021     		movs	r1, #128
 1006 0044 3846     		mov	r0, r7
 1007 0046 FFF7FEFF 		bl	DFB_1_ZeroReg32
 1008              	.LVL87:
 143:Generated_Source\PSoC5/DFB_1.c ****     DFB_1_ZeroReg32(DFB_1_CSB_RAM_PTR, DFB_1_CSB_RAM_SIZE);
 1009              		.loc 1 143 0
 1010 004a DFF8C0B0 		ldr	fp, .L92+48
 1011 004e 4021     		movs	r1, #64
 1012 0050 5846     		mov	r0, fp
 1013 0052 FFF7FEFF 		bl	DFB_1_ZeroReg32
 1014              	.LVL88:
 144:Generated_Source\PSoC5/DFB_1.c ****     DFB_1_ZeroReg32(DFB_1_ACU_RAM_PTR, DFB_1_ACU_RAM_SIZE);
 1015              		.loc 1 144 0
ARM GAS  C:\Users\monis\AppData\Local\Temp\ccAw9qWf.s 			page 36


 1016 0056 DFF8B890 		ldr	r9, .L92+52
 1017 005a 4021     		movs	r1, #64
 1018 005c 4846     		mov	r0, r9
 1019 005e FFF7FEFF 		bl	DFB_1_ZeroReg32
 1020              	.LVL89:
 145:Generated_Source\PSoC5/DFB_1.c ****     DFB_1_ZeroReg32(DFB_1_CFSM_RAM_PTR, DFB_1_CFSM_RAM_SIZE);
 1021              		.loc 1 145 0
 1022 0062 224E     		ldr	r6, .L92+16
 1023 0064 1021     		movs	r1, #16
 1024 0066 3046     		mov	r0, r6
 1025 0068 FFF7FEFF 		bl	DFB_1_ZeroReg32
 1026              	.LVL90:
 146:Generated_Source\PSoC5/DFB_1.c **** 
 1027              		.loc 1 146 0
 1028 006c 204C     		ldr	r4, .L92+20
 1029 006e 4021     		movs	r1, #64
 1030 0070 2046     		mov	r0, r4
 1031 0072 FFF7FEFF 		bl	DFB_1_ZeroReg32
 1032              	.LVL91:
 156:Generated_Source\PSoC5/DFB_1.c ****                                     DFB_1_CSA_RAM_SIZE_CUR);
 1033              		.loc 1 156 0
 1034 0076 DFF89CA0 		ldr	r10, .L92+56
 1035 007a 0122     		movs	r2, #1
 1036 007c 5146     		mov	r1, r10
 1037 007e 5846     		mov	r0, fp
 1038 0080 FFF7FEFF 		bl	DFB_1_LoadReg32
 1039              	.LVL92:
 158:Generated_Source\PSoC5/DFB_1.c ****                                     DFB_1_CSB_RAM_SIZE_CUR);
 1040              		.loc 1 158 0
 1041 0084 0122     		movs	r2, #1
 1042 0086 5146     		mov	r1, r10
 1043 0088 4846     		mov	r0, r9
 1044 008a FFF7FEFF 		bl	DFB_1_LoadReg32
 1045              	.LVL93:
 163:Generated_Source\PSoC5/DFB_1.c ****     DFB_1_LoadReg32(DFB_1_DB_RAM_PTR, DFB_1_data_b, DFB_1_DB_RAM_SIZE_CUR);
 1046              		.loc 1 163 0
 1047 008e 0122     		movs	r2, #1
 1048 0090 1849     		ldr	r1, .L92+24
 1049 0092 4046     		mov	r0, r8
 1050 0094 FFF7FEFF 		bl	DFB_1_LoadReg32
 1051              	.LVL94:
 164:Generated_Source\PSoC5/DFB_1.c ****     /* Loads initial data to ACU RAM */
 1052              		.loc 1 164 0
 1053 0098 0122     		movs	r2, #1
 1054 009a 1749     		ldr	r1, .L92+28
 1055 009c 3846     		mov	r0, r7
 1056 009e FFF7FEFF 		bl	DFB_1_LoadReg32
 1057              	.LVL95:
 166:Generated_Source\PSoC5/DFB_1.c ****     /* Loads initial data to CFSM RAM */
 1058              		.loc 1 166 0
 1059 00a2 0122     		movs	r2, #1
 1060 00a4 1549     		ldr	r1, .L92+32
 1061 00a6 3046     		mov	r0, r6
 1062 00a8 FFF7FEFF 		bl	DFB_1_LoadReg32
 1063              	.LVL96:
 168:Generated_Source\PSoC5/DFB_1.c ****                                 DFB_1_CFSM_RAM_SIZE_CUR);
 1064              		.loc 1 168 0
ARM GAS  C:\Users\monis\AppData\Local\Temp\ccAw9qWf.s 			page 37


 1065 00ac 0222     		movs	r2, #2
 1066 00ae 1449     		ldr	r1, .L92+36
 1067 00b0 2046     		mov	r0, r4
 1068 00b2 FFF7FEFF 		bl	DFB_1_LoadReg32
 1069              	.LVL97:
 172:Generated_Source\PSoC5/DFB_1.c **** 
 1070              		.loc 1 172 0
 1071 00b6 0024     		movs	r4, #0
 1072 00b8 2C70     		strb	r4, [r5]
 175:Generated_Source\PSoC5/DFB_1.c ****     DFB_1_SetDMAMode(DFB_1_INIT_DMA_MODE);
 1073              		.loc 1 175 0
 1074 00ba 2046     		mov	r0, r4
 1075 00bc FFF7FEFF 		bl	DFB_1_SetInterruptMode
 1076              	.LVL98:
 176:Generated_Source\PSoC5/DFB_1.c **** 
 1077              		.loc 1 176 0
 1078 00c0 2046     		mov	r0, r4
 1079 00c2 FFF7FEFF 		bl	DFB_1_SetDMAMode
 1080              	.LVL99:
 179:Generated_Source\PSoC5/DFB_1.c ****     DFB_1_SetOutput2Source(DFB_1_INIT_OUT2_SOURCE);
 1081              		.loc 1 179 0
 1082 00c6 2046     		mov	r0, r4
 1083 00c8 FFF7FEFF 		bl	DFB_1_SetOutput1Source
 1084              	.LVL100:
 180:Generated_Source\PSoC5/DFB_1.c **** 
 1085              		.loc 1 180 0
 1086 00cc 2046     		mov	r0, r4
 1087 00ce FFF7FEFF 		bl	DFB_1_SetOutput2Source
 1088              	.LVL101:
 183:Generated_Source\PSoC5/DFB_1.c **** }
 1089              		.loc 1 183 0
 1090 00d2 FF22     		movs	r2, #255
 1091 00d4 0B4B     		ldr	r3, .L92+40
 1092 00d6 1A70     		strb	r2, [r3]
 1093 00d8 BDE8F88F 		pop	{r3, r4, r5, r6, r7, r8, r9, r10, fp, pc}
 1094              	.L93:
 1095              		.align	2
 1096              	.L92:
 1097 00dc A6430040 		.word	1073759142
 1098 00e0 80C70040 		.word	1073792896
 1099 00e4 8CC70040 		.word	1073792908
 1100 00e8 00C20040 		.word	1073791488
 1101 00ec 00C70040 		.word	1073792768
 1102 00f0 00C60040 		.word	1073792512
 1103 00f4 00000000 		.word	DFB_1_data_a
 1104 00f8 00000000 		.word	DFB_1_data_b
 1105 00fc 00000000 		.word	DFB_1_acu
 1106 0100 00000000 		.word	DFB_1_cfsm
 1107 0104 84C70040 		.word	1073792900
 1108 0108 00C00040 		.word	1073790976
 1109 010c 00C40040 		.word	1073792000
 1110 0110 00C50040 		.word	1073792256
 1111 0114 00000000 		.word	DFB_1_control
 1112              		.cfi_endproc
 1113              	.LFE2:
 1114              		.size	DFB_1_Init, .-DFB_1_Init
 1115              		.section	.text.DFB_1_Start,"ax",%progbits
ARM GAS  C:\Users\monis\AppData\Local\Temp\ccAw9qWf.s 			page 38


 1116              		.align	2
 1117              		.global	DFB_1_Start
 1118              		.thumb
 1119              		.thumb_func
 1120              		.type	DFB_1_Start, %function
 1121              	DFB_1_Start:
 1122              	.LFB4:
 245:Generated_Source\PSoC5/DFB_1.c ****     if (DFB_1_initVar == 0u)
 1123              		.loc 1 245 0
 1124              		.cfi_startproc
 1125              		@ args = 0, pretend = 0, frame = 0
 1126              		@ frame_needed = 0, uses_anonymous_args = 0
 1127 0000 08B5     		push	{r3, lr}
 1128              		.cfi_def_cfa_offset 8
 1129              		.cfi_offset 3, -8
 1130              		.cfi_offset 14, -4
 246:Generated_Source\PSoC5/DFB_1.c ****     {
 1131              		.loc 1 246 0
 1132 0002 054B     		ldr	r3, .L97
 1133 0004 1B78     		ldrb	r3, [r3]	@ zero_extendqisi2
 1134 0006 23B9     		cbnz	r3, .L95
 248:Generated_Source\PSoC5/DFB_1.c ****         DFB_1_initVar = 1u;
 1135              		.loc 1 248 0
 1136 0008 FFF7FEFF 		bl	DFB_1_Init
 1137              	.LVL102:
 249:Generated_Source\PSoC5/DFB_1.c ****     }
 1138              		.loc 1 249 0
 1139 000c 0122     		movs	r2, #1
 1140 000e 024B     		ldr	r3, .L97
 1141 0010 1A70     		strb	r2, [r3]
 1142              	.L95:
 252:Generated_Source\PSoC5/DFB_1.c **** }
 1143              		.loc 1 252 0
 1144 0012 FFF7FEFF 		bl	DFB_1_Enable
 1145              	.LVL103:
 1146 0016 08BD     		pop	{r3, pc}
 1147              	.L98:
 1148              		.align	2
 1149              	.L97:
 1150 0018 00000000 		.word	.LANCHOR0
 1151              		.cfi_endproc
 1152              	.LFE4:
 1153              		.size	DFB_1_Start, .-DFB_1_Start
 1154              		.global	DFB_1_initVar
 1155              		.bss
 1156              		.set	.LANCHOR0,. + 0
 1157              		.type	DFB_1_initVar, %object
 1158              		.size	DFB_1_initVar, 1
 1159              	DFB_1_initVar:
 1160 0000 00       		.space	1
 1161              		.text
 1162              	.Letext0:
 1163              		.file 2 "Generated_Source\\PSoC5\\cytypes.h"
 1164              		.file 3 "Generated_Source\\PSoC5\\DFB_1.h"
 1165              		.file 4 "Generated_Source\\PSoC5\\CyLib.h"