ARM GAS  C:\Users\monis\AppData\Local\Temp\ccz3wN2i.s 			page 1


   1              		.syntax unified
   2              		.cpu cortex-m3
   3              		.fpu softvfp
   4              		.eabi_attribute 20, 1
   5              		.eabi_attribute 21, 1
   6              		.eabi_attribute 23, 3
   7              		.eabi_attribute 24, 1
   8              		.eabi_attribute 25, 1
   9              		.eabi_attribute 26, 1
  10              		.eabi_attribute 30, 1
  11              		.eabi_attribute 34, 1
  12              		.eabi_attribute 18, 4
  13              		.thumb
  14              		.syntax unified
  15              		.file	"DFB_1_PM.c"
  16              		.text
  17              	.Ltext0:
  18              		.cfi_sections	.debug_frame
  19              		.section	.text.DFB_1_SaveConfig,"ax",%progbits
  20              		.align	2
  21              		.global	DFB_1_SaveConfig
  22              		.thumb
  23              		.thumb_func
  24              		.type	DFB_1_SaveConfig, %function
  25              	DFB_1_SaveConfig:
  26              	.LFB0:
  27              		.file 1 "Generated_Source\\PSoC5\\DFB_1_PM.c"
   1:Generated_Source\PSoC5/DFB_1_PM.c **** /*******************************************************************************
   2:Generated_Source\PSoC5/DFB_1_PM.c **** * File Name: DFB_1_PM.c
   3:Generated_Source\PSoC5/DFB_1_PM.c **** * Version 1.40
   4:Generated_Source\PSoC5/DFB_1_PM.c **** *
   5:Generated_Source\PSoC5/DFB_1_PM.c **** * Description:
   6:Generated_Source\PSoC5/DFB_1_PM.c **** *  This file contains the setup, control and status commands to support
   7:Generated_Source\PSoC5/DFB_1_PM.c **** *  component operations in low power mode.
   8:Generated_Source\PSoC5/DFB_1_PM.c **** *
   9:Generated_Source\PSoC5/DFB_1_PM.c **** * Note:
  10:Generated_Source\PSoC5/DFB_1_PM.c **** *
  11:Generated_Source\PSoC5/DFB_1_PM.c **** ********************************************************************************
  12:Generated_Source\PSoC5/DFB_1_PM.c **** * Copyright 2011-2015, Cypress Semiconductor Corporation.  All rights reserved.
  13:Generated_Source\PSoC5/DFB_1_PM.c **** * You may use this file only in accordance with the license, terms, conditions,
  14:Generated_Source\PSoC5/DFB_1_PM.c **** * disclaimers, and limitations in the end user license agreement accompanying
  15:Generated_Source\PSoC5/DFB_1_PM.c **** * the software package with which this file was provided.
  16:Generated_Source\PSoC5/DFB_1_PM.c **** *******************************************************************************/
  17:Generated_Source\PSoC5/DFB_1_PM.c **** 
  18:Generated_Source\PSoC5/DFB_1_PM.c **** #include "DFB_1.h"
  19:Generated_Source\PSoC5/DFB_1_PM.c **** 
  20:Generated_Source\PSoC5/DFB_1_PM.c **** static DFB_1_BACKUP_STRUCT DFB_1_backup = { 0u };
  21:Generated_Source\PSoC5/DFB_1_PM.c **** 
  22:Generated_Source\PSoC5/DFB_1_PM.c **** 
  23:Generated_Source\PSoC5/DFB_1_PM.c **** /*******************************************************************************
  24:Generated_Source\PSoC5/DFB_1_PM.c **** * Function Name: DFB_1_SaveConfig
  25:Generated_Source\PSoC5/DFB_1_PM.c **** ********************************************************************************
  26:Generated_Source\PSoC5/DFB_1_PM.c **** *
  27:Generated_Source\PSoC5/DFB_1_PM.c **** * Summary:
  28:Generated_Source\PSoC5/DFB_1_PM.c **** *  Saves the user configuration of the DFB non-retention registers. This routine
  29:Generated_Source\PSoC5/DFB_1_PM.c **** *  is called by DFB_Sleep() to save the component configuration before entering
  30:Generated_Source\PSoC5/DFB_1_PM.c **** *  sleep.
ARM GAS  C:\Users\monis\AppData\Local\Temp\ccz3wN2i.s 			page 2


  31:Generated_Source\PSoC5/DFB_1_PM.c **** *
  32:Generated_Source\PSoC5/DFB_1_PM.c **** * Parameters:
  33:Generated_Source\PSoC5/DFB_1_PM.c **** *  None.
  34:Generated_Source\PSoC5/DFB_1_PM.c **** *
  35:Generated_Source\PSoC5/DFB_1_PM.c **** * Return:
  36:Generated_Source\PSoC5/DFB_1_PM.c **** *  None.
  37:Generated_Source\PSoC5/DFB_1_PM.c **** *
  38:Generated_Source\PSoC5/DFB_1_PM.c **** *******************************************************************************/
  39:Generated_Source\PSoC5/DFB_1_PM.c **** void DFB_1_SaveConfig(void) 
  40:Generated_Source\PSoC5/DFB_1_PM.c **** {
  28              		.loc 1 40 0
  29              		.cfi_startproc
  30              		@ args = 0, pretend = 0, frame = 0
  31              		@ frame_needed = 0, uses_anonymous_args = 0
  32              		@ link register save eliminated.
  33 0000 10B4     		push	{r4}
  34              		.cfi_def_cfa_offset 4
  35              		.cfi_offset 4, -4
  36              	.LVL0:
  41:Generated_Source\PSoC5/DFB_1_PM.c ****     uint8 count;
  42:Generated_Source\PSoC5/DFB_1_PM.c ****     uint8 i = 0u;
  43:Generated_Source\PSoC5/DFB_1_PM.c **** 	
  44:Generated_Source\PSoC5/DFB_1_PM.c ****     DFB_1_backup.sr = DFB_1_SR_REG;
  37              		.loc 1 44 0
  38 0002 0F4B     		ldr	r3, .L5
  39 0004 1A78     		ldrb	r2, [r3]	@ zero_extendqisi2
  40 0006 0F4B     		ldr	r3, .L5+4
  41 0008 9A70     		strb	r2, [r3, #2]
  45:Generated_Source\PSoC5/DFB_1_PM.c ****     DFB_1_backup.sem = DFB_1_SEM_REG;
  42              		.loc 1 45 0
  43 000a 0F4A     		ldr	r2, .L5+8
  44 000c 1278     		ldrb	r2, [r2]	@ zero_extendqisi2
  45 000e DA70     		strb	r2, [r3, #3]
  46              	.LVL1:
  42:Generated_Source\PSoC5/DFB_1_PM.c **** 	
  47              		.loc 1 42 0
  48 0010 0022     		movs	r2, #0
  46:Generated_Source\PSoC5/DFB_1_PM.c **** 
  47:Generated_Source\PSoC5/DFB_1_PM.c ****     /* ACU RAM */
  48:Generated_Source\PSoC5/DFB_1_PM.c ****     count = DFB_1_ACU_RAM_SIZE_CUR;
  49              		.loc 1 48 0
  50 0012 0123     		movs	r3, #1
  49:Generated_Source\PSoC5/DFB_1_PM.c ****     while (count > 0u)
  51              		.loc 1 49 0
  52 0014 0CE0     		b	.L2
  53              	.LVL2:
  54              	.L3:
  50:Generated_Source\PSoC5/DFB_1_PM.c ****     {
  51:Generated_Source\PSoC5/DFB_1_PM.c ****         DFB_1_backup.acu[i] = CY_GET_REG32(& DFB_1_ACU_RAM_PTR[i]);
  55              		.loc 1 51 0
  56 0016 9100     		lsls	r1, r2, #2
  57 0018 01F18040 		add	r0, r1, #1073741824
  58 001c 00F54740 		add	r0, r0, #50944
  59 0020 0068     		ldr	r0, [r0]
  60 0022 084C     		ldr	r4, .L5+4
  61 0024 2144     		add	r1, r1, r4
  62 0026 4860     		str	r0, [r1, #4]
ARM GAS  C:\Users\monis\AppData\Local\Temp\ccz3wN2i.s 			page 3


  52:Generated_Source\PSoC5/DFB_1_PM.c ****         count--;
  63              		.loc 1 52 0
  64 0028 013B     		subs	r3, r3, #1
  65              	.LVL3:
  66 002a DBB2     		uxtb	r3, r3
  67              	.LVL4:
  53:Generated_Source\PSoC5/DFB_1_PM.c ****         i++;
  68              		.loc 1 53 0
  69 002c 0132     		adds	r2, r2, #1
  70              	.LVL5:
  71 002e D2B2     		uxtb	r2, r2
  72              	.LVL6:
  73              	.L2:
  49:Generated_Source\PSoC5/DFB_1_PM.c ****     {
  74              		.loc 1 49 0
  75 0030 002B     		cmp	r3, #0
  76 0032 F0D1     		bne	.L3
  54:Generated_Source\PSoC5/DFB_1_PM.c ****     }
  55:Generated_Source\PSoC5/DFB_1_PM.c **** 	
  56:Generated_Source\PSoC5/DFB_1_PM.c ****     /* Take DFB RAM off the bus */
  57:Generated_Source\PSoC5/DFB_1_PM.c ****     DFB_1_RAM_DIR_REG = DFB_1_RAM_DIR_DFB;
  77              		.loc 1 57 0
  78 0034 0022     		movs	r2, #0
  79              	.LVL7:
  80 0036 054B     		ldr	r3, .L5+12
  81              	.LVL8:
  82 0038 1A70     		strb	r2, [r3]
  58:Generated_Source\PSoC5/DFB_1_PM.c **** }
  83              		.loc 1 58 0
  84 003a 10BC     		pop	{r4}
  85              		.cfi_restore 4
  86              		.cfi_def_cfa_offset 0
  87 003c 7047     		bx	lr
  88              	.L6:
  89 003e 00BF     		.align	2
  90              	.L5:
  91 0040 84C70040 		.word	1073792900
  92 0044 00000000 		.word	.LANCHOR0
  93 0048 90C70040 		.word	1073792912
  94 004c 8CC70040 		.word	1073792908
  95              		.cfi_endproc
  96              	.LFE0:
  97              		.size	DFB_1_SaveConfig, .-DFB_1_SaveConfig
  98              		.section	.text.DFB_1_RestoreConfig,"ax",%progbits
  99              		.align	2
 100              		.global	DFB_1_RestoreConfig
 101              		.thumb
 102              		.thumb_func
 103              		.type	DFB_1_RestoreConfig, %function
 104              	DFB_1_RestoreConfig:
 105              	.LFB1:
  59:Generated_Source\PSoC5/DFB_1_PM.c **** 
  60:Generated_Source\PSoC5/DFB_1_PM.c **** 
  61:Generated_Source\PSoC5/DFB_1_PM.c **** /*******************************************************************************
  62:Generated_Source\PSoC5/DFB_1_PM.c **** * Function Name: DFB_1_RestoreConfig
  63:Generated_Source\PSoC5/DFB_1_PM.c **** ********************************************************************************
  64:Generated_Source\PSoC5/DFB_1_PM.c **** *
ARM GAS  C:\Users\monis\AppData\Local\Temp\ccz3wN2i.s 			page 4


  65:Generated_Source\PSoC5/DFB_1_PM.c **** * Summary:
  66:Generated_Source\PSoC5/DFB_1_PM.c **** *  Restores the user configuration of the DFB non-retention registers. This
  67:Generated_Source\PSoC5/DFB_1_PM.c **** *  routine is called by DFB_Wakeup() to restore the component configuration when
  68:Generated_Source\PSoC5/DFB_1_PM.c **** *  exiting sleep.
  69:Generated_Source\PSoC5/DFB_1_PM.c **** *
  70:Generated_Source\PSoC5/DFB_1_PM.c **** * Parameters:
  71:Generated_Source\PSoC5/DFB_1_PM.c **** *  None.
  72:Generated_Source\PSoC5/DFB_1_PM.c **** *
  73:Generated_Source\PSoC5/DFB_1_PM.c **** * Return:
  74:Generated_Source\PSoC5/DFB_1_PM.c **** *  None.
  75:Generated_Source\PSoC5/DFB_1_PM.c **** *
  76:Generated_Source\PSoC5/DFB_1_PM.c **** *******************************************************************************/
  77:Generated_Source\PSoC5/DFB_1_PM.c **** void DFB_1_RestoreConfig(void) 
  78:Generated_Source\PSoC5/DFB_1_PM.c **** {
 106              		.loc 1 78 0
 107              		.cfi_startproc
 108              		@ args = 0, pretend = 0, frame = 0
 109              		@ frame_needed = 0, uses_anonymous_args = 0
 110              		@ link register save eliminated.
 111 0000 10B4     		push	{r4}
 112              		.cfi_def_cfa_offset 4
 113              		.cfi_offset 4, -4
 114              	.LVL9:
  79:Generated_Source\PSoC5/DFB_1_PM.c ****     uint8 count;
  80:Generated_Source\PSoC5/DFB_1_PM.c ****     uint8 i = 0u;
  81:Generated_Source\PSoC5/DFB_1_PM.c **** 
  82:Generated_Source\PSoC5/DFB_1_PM.c ****     DFB_1_SR_REG = DFB_1_backup.sr;
 115              		.loc 1 82 0
 116 0002 154B     		ldr	r3, .L11
 117 0004 9978     		ldrb	r1, [r3, #2]	@ zero_extendqisi2
 118 0006 154A     		ldr	r2, .L11+4
 119 0008 1170     		strb	r1, [r2]
  83:Generated_Source\PSoC5/DFB_1_PM.c ****     DFB_1_SEM_REG = DFB_1_backup.sem;
 120              		.loc 1 83 0
 121 000a DA78     		ldrb	r2, [r3, #3]	@ zero_extendqisi2
 122 000c 144B     		ldr	r3, .L11+8
 123 000e 1A70     		strb	r2, [r3]
  84:Generated_Source\PSoC5/DFB_1_PM.c ****     
  85:Generated_Source\PSoC5/DFB_1_PM.c ****     /* Power on DFB before initializing the RAMs */
  86:Generated_Source\PSoC5/DFB_1_PM.c ****     DFB_1_PM_ACT_CFG_REG |= DFB_1_PM_ACT_MSK;
 124              		.loc 1 86 0
 125 0010 144A     		ldr	r2, .L11+12
 126 0012 1378     		ldrb	r3, [r2]	@ zero_extendqisi2
 127 0014 43F01003 		orr	r3, r3, #16
 128 0018 1370     		strb	r3, [r2]
  87:Generated_Source\PSoC5/DFB_1_PM.c ****     /* Enables DFB block in Alternate Active (Standby) mode */
  88:Generated_Source\PSoC5/DFB_1_PM.c ****     DFB_1_PM_STBY_CFG_REG |= DFB_1_PM_STBY_MSK;
 129              		.loc 1 88 0
 130 001a 1032     		adds	r2, r2, #16
 131 001c 1378     		ldrb	r3, [r2]	@ zero_extendqisi2
 132 001e 43F01003 		orr	r3, r3, #16
 133 0022 1370     		strb	r3, [r2]
  89:Generated_Source\PSoC5/DFB_1_PM.c ****     
  90:Generated_Source\PSoC5/DFB_1_PM.c ****     /* Put DFB RAM on the bus */
  91:Generated_Source\PSoC5/DFB_1_PM.c ****     DFB_1_RAM_DIR_REG = DFB_1_RAM_DIR_BUS;
 134              		.loc 1 91 0
 135 0024 3F22     		movs	r2, #63
ARM GAS  C:\Users\monis\AppData\Local\Temp\ccz3wN2i.s 			page 5


 136 0026 104B     		ldr	r3, .L11+16
 137 0028 1A70     		strb	r2, [r3]
 138              	.LVL10:
  80:Generated_Source\PSoC5/DFB_1_PM.c **** 
 139              		.loc 1 80 0
 140 002a 0022     		movs	r2, #0
  92:Generated_Source\PSoC5/DFB_1_PM.c **** 
  93:Generated_Source\PSoC5/DFB_1_PM.c ****     /* ACU RAM */
  94:Generated_Source\PSoC5/DFB_1_PM.c ****     count = DFB_1_ACU_RAM_SIZE_CUR;
 141              		.loc 1 94 0
 142 002c 0123     		movs	r3, #1
  95:Generated_Source\PSoC5/DFB_1_PM.c ****     while (count > 0u)
 143              		.loc 1 95 0
 144 002e 0CE0     		b	.L8
 145              	.LVL11:
 146              	.L9:
  96:Generated_Source\PSoC5/DFB_1_PM.c ****     {
  97:Generated_Source\PSoC5/DFB_1_PM.c ****         CY_SET_REG32(& DFB_1_ACU_RAM_PTR[i], DFB_1_backup.acu[i]);
 147              		.loc 1 97 0
 148 0030 9100     		lsls	r1, r2, #2
 149 0032 01F18040 		add	r0, r1, #1073741824
 150 0036 00F54740 		add	r0, r0, #50944
 151 003a 074C     		ldr	r4, .L11
 152 003c 2144     		add	r1, r1, r4
 153 003e 4968     		ldr	r1, [r1, #4]
 154 0040 0160     		str	r1, [r0]
  98:Generated_Source\PSoC5/DFB_1_PM.c ****         count--;
 155              		.loc 1 98 0
 156 0042 013B     		subs	r3, r3, #1
 157              	.LVL12:
 158 0044 DBB2     		uxtb	r3, r3
 159              	.LVL13:
  99:Generated_Source\PSoC5/DFB_1_PM.c ****         i++;
 160              		.loc 1 99 0
 161 0046 0132     		adds	r2, r2, #1
 162              	.LVL14:
 163 0048 D2B2     		uxtb	r2, r2
 164              	.LVL15:
 165              	.L8:
  95:Generated_Source\PSoC5/DFB_1_PM.c ****     {
 166              		.loc 1 95 0
 167 004a 002B     		cmp	r3, #0
 168 004c F0D1     		bne	.L9
 100:Generated_Source\PSoC5/DFB_1_PM.c ****     }
 101:Generated_Source\PSoC5/DFB_1_PM.c **** 
 102:Generated_Source\PSoC5/DFB_1_PM.c ****     /* Take DFB RAM off the bus */
 103:Generated_Source\PSoC5/DFB_1_PM.c ****     DFB_1_RAM_DIR_REG = DFB_1_RAM_DIR_DFB;
 169              		.loc 1 103 0
 170 004e 0022     		movs	r2, #0
 171              	.LVL16:
 172 0050 054B     		ldr	r3, .L11+16
 173              	.LVL17:
 174 0052 1A70     		strb	r2, [r3]
 104:Generated_Source\PSoC5/DFB_1_PM.c **** }
 175              		.loc 1 104 0
 176 0054 10BC     		pop	{r4}
 177              		.cfi_restore 4
ARM GAS  C:\Users\monis\AppData\Local\Temp\ccz3wN2i.s 			page 6


 178              		.cfi_def_cfa_offset 0
 179 0056 7047     		bx	lr
 180              	.L12:
 181              		.align	2
 182              	.L11:
 183 0058 00000000 		.word	.LANCHOR0
 184 005c 84C70040 		.word	1073792900
 185 0060 90C70040 		.word	1073792912
 186 0064 A6430040 		.word	1073759142
 187 0068 8CC70040 		.word	1073792908
 188              		.cfi_endproc
 189              	.LFE1:
 190              		.size	DFB_1_RestoreConfig, .-DFB_1_RestoreConfig
 191              		.section	.text.DFB_1_Sleep,"ax",%progbits
 192              		.align	2
 193              		.global	DFB_1_Sleep
 194              		.thumb
 195              		.thumb_func
 196              		.type	DFB_1_Sleep, %function
 197              	DFB_1_Sleep:
 198              	.LFB2:
 105:Generated_Source\PSoC5/DFB_1_PM.c **** 
 106:Generated_Source\PSoC5/DFB_1_PM.c **** 
 107:Generated_Source\PSoC5/DFB_1_PM.c **** /*******************************************************************************
 108:Generated_Source\PSoC5/DFB_1_PM.c **** * Function Name: DFB_1_Sleep
 109:Generated_Source\PSoC5/DFB_1_PM.c **** ********************************************************************************
 110:Generated_Source\PSoC5/DFB_1_PM.c **** *
 111:Generated_Source\PSoC5/DFB_1_PM.c **** * Summary:
 112:Generated_Source\PSoC5/DFB_1_PM.c **** *  This is the preferred routine to prepare the component for sleep. The
 113:Generated_Source\PSoC5/DFB_1_PM.c **** *  DFB_1_Sleep() routine saves the current component state. Then it
 114:Generated_Source\PSoC5/DFB_1_PM.c **** *  calls the DFB_Stop() function and calls DFB_1_SaveConfig() to save
 115:Generated_Source\PSoC5/DFB_1_PM.c **** *  the hardware configuration. Call the DFB_1_Sleep() function before
 116:Generated_Source\PSoC5/DFB_1_PM.c **** *  calling the CyPmSleep() or the CyPmHibernate() function. Refer to the PSoC
 117:Generated_Source\PSoC5/DFB_1_PM.c **** *  Creator System Reference Guide for more information about power management
 118:Generated_Source\PSoC5/DFB_1_PM.c **** *  functions.
 119:Generated_Source\PSoC5/DFB_1_PM.c **** *
 120:Generated_Source\PSoC5/DFB_1_PM.c **** * Parameters:
 121:Generated_Source\PSoC5/DFB_1_PM.c **** *  None.
 122:Generated_Source\PSoC5/DFB_1_PM.c **** *
 123:Generated_Source\PSoC5/DFB_1_PM.c **** * Return:
 124:Generated_Source\PSoC5/DFB_1_PM.c **** *  None.
 125:Generated_Source\PSoC5/DFB_1_PM.c **** *
 126:Generated_Source\PSoC5/DFB_1_PM.c **** * Reentrant:
 127:Generated_Source\PSoC5/DFB_1_PM.c **** *  No.
 128:Generated_Source\PSoC5/DFB_1_PM.c **** *
 129:Generated_Source\PSoC5/DFB_1_PM.c **** *******************************************************************************/
 130:Generated_Source\PSoC5/DFB_1_PM.c **** void DFB_1_Sleep(void) 
 131:Generated_Source\PSoC5/DFB_1_PM.c **** {
 199              		.loc 1 131 0
 200              		.cfi_startproc
 201              		@ args = 0, pretend = 0, frame = 0
 202              		@ frame_needed = 0, uses_anonymous_args = 0
 203 0000 08B5     		push	{r3, lr}
 204              		.cfi_def_cfa_offset 8
 205              		.cfi_offset 3, -8
 206              		.cfi_offset 14, -4
 132:Generated_Source\PSoC5/DFB_1_PM.c ****     if (0u != (DFB_1_CR_REG & DFB_1_RUN_MASK))
ARM GAS  C:\Users\monis\AppData\Local\Temp\ccz3wN2i.s 			page 7


 207              		.loc 1 132 0
 208 0002 0B4B     		ldr	r3, .L17
 209 0004 1B78     		ldrb	r3, [r3]	@ zero_extendqisi2
 210 0006 13F0010F 		tst	r3, #1
 211 000a 03D0     		beq	.L14
 133:Generated_Source\PSoC5/DFB_1_PM.c ****     {
 134:Generated_Source\PSoC5/DFB_1_PM.c ****         DFB_1_backup.enableState = 1u;
 212              		.loc 1 134 0
 213 000c 0122     		movs	r2, #1
 214 000e 094B     		ldr	r3, .L17+4
 215 0010 1A70     		strb	r2, [r3]
 216 0012 02E0     		b	.L15
 217              	.L14:
 135:Generated_Source\PSoC5/DFB_1_PM.c ****     }
 136:Generated_Source\PSoC5/DFB_1_PM.c ****     else /* The DFB block is disabled */
 137:Generated_Source\PSoC5/DFB_1_PM.c ****     {
 138:Generated_Source\PSoC5/DFB_1_PM.c ****         DFB_1_backup.enableState = 0u;
 218              		.loc 1 138 0
 219 0014 0022     		movs	r2, #0
 220 0016 074B     		ldr	r3, .L17+4
 221 0018 1A70     		strb	r2, [r3]
 222              	.L15:
 139:Generated_Source\PSoC5/DFB_1_PM.c ****     }
 140:Generated_Source\PSoC5/DFB_1_PM.c **** 
 141:Generated_Source\PSoC5/DFB_1_PM.c ****     /* Turn off the run bit, and put the DFB RAM on the bus */
 142:Generated_Source\PSoC5/DFB_1_PM.c ****     DFB_1_Pause();
 223              		.loc 1 142 0
 224 001a FFF7FEFF 		bl	DFB_1_Pause
 225              	.LVL18:
 143:Generated_Source\PSoC5/DFB_1_PM.c ****     
 144:Generated_Source\PSoC5/DFB_1_PM.c ****     /* Save the configuration */
 145:Generated_Source\PSoC5/DFB_1_PM.c ****     DFB_1_SaveConfig();
 226              		.loc 1 145 0
 227 001e FFF7FEFF 		bl	DFB_1_SaveConfig
 228              	.LVL19:
 146:Generated_Source\PSoC5/DFB_1_PM.c ****     
 147:Generated_Source\PSoC5/DFB_1_PM.c ****     /* Disables the clock to the entire core of the block */
 148:Generated_Source\PSoC5/DFB_1_PM.c ****     DFB_1_CR_REG |= DFB_1_CORECLK_DISABLE;
 229              		.loc 1 148 0
 230 0022 034A     		ldr	r2, .L17
 231 0024 1378     		ldrb	r3, [r2]	@ zero_extendqisi2
 232 0026 43F00403 		orr	r3, r3, #4
 233 002a 1370     		strb	r3, [r2]
 234 002c 08BD     		pop	{r3, pc}
 235              	.L18:
 236 002e 00BF     		.align	2
 237              	.L17:
 238 0030 80C70040 		.word	1073792896
 239 0034 00000000 		.word	.LANCHOR0
 240              		.cfi_endproc
 241              	.LFE2:
 242              		.size	DFB_1_Sleep, .-DFB_1_Sleep
 243              		.section	.text.DFB_1_Wakeup,"ax",%progbits
 244              		.align	2
 245              		.global	DFB_1_Wakeup
 246              		.thumb
 247              		.thumb_func
ARM GAS  C:\Users\monis\AppData\Local\Temp\ccz3wN2i.s 			page 8


 248              		.type	DFB_1_Wakeup, %function
 249              	DFB_1_Wakeup:
 250              	.LFB3:
 149:Generated_Source\PSoC5/DFB_1_PM.c **** }
 150:Generated_Source\PSoC5/DFB_1_PM.c **** 
 151:Generated_Source\PSoC5/DFB_1_PM.c **** 
 152:Generated_Source\PSoC5/DFB_1_PM.c **** /*******************************************************************************
 153:Generated_Source\PSoC5/DFB_1_PM.c **** * Function Name: DFB_1_Wakeup
 154:Generated_Source\PSoC5/DFB_1_PM.c **** ********************************************************************************
 155:Generated_Source\PSoC5/DFB_1_PM.c **** *
 156:Generated_Source\PSoC5/DFB_1_PM.c **** * Summary:
 157:Generated_Source\PSoC5/DFB_1_PM.c **** *  This is the preferred routine to restore the component to the state when
 158:Generated_Source\PSoC5/DFB_1_PM.c **** *  DFB_1_Sleep() was called. The DFB_1_Wakeup() function
 159:Generated_Source\PSoC5/DFB_1_PM.c **** *  calls the DFB_1_RestoreConfig() function to restore the
 160:Generated_Source\PSoC5/DFB_1_PM.c **** *  configuration. If the component was enabled before the
 161:Generated_Source\PSoC5/DFB_1_PM.c **** *  DFB_1_Sleep() function was called, the DFB_1_Wakeup()
 162:Generated_Source\PSoC5/DFB_1_PM.c **** *  function will also re-enable the component.
 163:Generated_Source\PSoC5/DFB_1_PM.c **** *
 164:Generated_Source\PSoC5/DFB_1_PM.c **** * Parameters:
 165:Generated_Source\PSoC5/DFB_1_PM.c **** *  None.
 166:Generated_Source\PSoC5/DFB_1_PM.c **** *
 167:Generated_Source\PSoC5/DFB_1_PM.c **** * Return:
 168:Generated_Source\PSoC5/DFB_1_PM.c **** *  None.
 169:Generated_Source\PSoC5/DFB_1_PM.c **** *
 170:Generated_Source\PSoC5/DFB_1_PM.c **** * Side Effects:
 171:Generated_Source\PSoC5/DFB_1_PM.c **** *  Calling the DFB_1_Wakeup() function without first calling the
 172:Generated_Source\PSoC5/DFB_1_PM.c **** *  DFB_1_Sleep() or DFB_1_SaveConfig() function may
 173:Generated_Source\PSoC5/DFB_1_PM.c **** *  produce unexpected behavior.
 174:Generated_Source\PSoC5/DFB_1_PM.c **** *
 175:Generated_Source\PSoC5/DFB_1_PM.c **** *******************************************************************************/
 176:Generated_Source\PSoC5/DFB_1_PM.c **** void DFB_1_Wakeup(void) 
 177:Generated_Source\PSoC5/DFB_1_PM.c **** {
 251              		.loc 1 177 0
 252              		.cfi_startproc
 253              		@ args = 0, pretend = 0, frame = 0
 254              		@ frame_needed = 0, uses_anonymous_args = 0
 255 0000 08B5     		push	{r3, lr}
 256              		.cfi_def_cfa_offset 8
 257              		.cfi_offset 3, -8
 258              		.cfi_offset 14, -4
 178:Generated_Source\PSoC5/DFB_1_PM.c ****     DFB_1_RestoreConfig();
 259              		.loc 1 178 0
 260 0002 FFF7FEFF 		bl	DFB_1_RestoreConfig
 261              	.LVL20:
 179:Generated_Source\PSoC5/DFB_1_PM.c **** 
 180:Generated_Source\PSoC5/DFB_1_PM.c ****     if (DFB_1_backup.enableState != 0u)
 262              		.loc 1 180 0
 263 0006 074B     		ldr	r3, .L23
 264 0008 1B78     		ldrb	r3, [r3]	@ zero_extendqisi2
 265 000a 13B1     		cbz	r3, .L20
 181:Generated_Source\PSoC5/DFB_1_PM.c ****     {
 182:Generated_Source\PSoC5/DFB_1_PM.c ****         /* Enables component's operation */
 183:Generated_Source\PSoC5/DFB_1_PM.c ****         DFB_1_Resume();
 266              		.loc 1 183 0
 267 000c FFF7FEFF 		bl	DFB_1_Resume
 268              	.LVL21:
 269 0010 02E0     		b	.L21
ARM GAS  C:\Users\monis\AppData\Local\Temp\ccz3wN2i.s 			page 9


 270              	.L20:
 184:Generated_Source\PSoC5/DFB_1_PM.c ****     } /* Left Run Bit in off state if component's block was disabled before */
 185:Generated_Source\PSoC5/DFB_1_PM.c ****     else
 186:Generated_Source\PSoC5/DFB_1_PM.c ****     {
 187:Generated_Source\PSoC5/DFB_1_PM.c ****         /* Clears any pending interrupts */
 188:Generated_Source\PSoC5/DFB_1_PM.c ****         DFB_1_SR_REG = 0xFFu;
 271              		.loc 1 188 0
 272 0012 FF22     		movs	r2, #255
 273 0014 044B     		ldr	r3, .L23+4
 274 0016 1A70     		strb	r2, [r3]
 275              	.L21:
 189:Generated_Source\PSoC5/DFB_1_PM.c ****     }
 190:Generated_Source\PSoC5/DFB_1_PM.c ****     /* Enables the clock to the entire core of the block */
 191:Generated_Source\PSoC5/DFB_1_PM.c ****     DFB_1_CR_REG &= (uint8) (~DFB_1_CORECLK_DISABLE);
 276              		.loc 1 191 0
 277 0018 044A     		ldr	r2, .L23+8
 278 001a 1378     		ldrb	r3, [r2]	@ zero_extendqisi2
 279 001c 03F0FB03 		and	r3, r3, #251
 280 0020 1370     		strb	r3, [r2]
 281 0022 08BD     		pop	{r3, pc}
 282              	.L24:
 283              		.align	2
 284              	.L23:
 285 0024 00000000 		.word	.LANCHOR0
 286 0028 84C70040 		.word	1073792900
 287 002c 80C70040 		.word	1073792896
 288              		.cfi_endproc
 289              	.LFE3:
 290              		.size	DFB_1_Wakeup, .-DFB_1_Wakeup
 291              		.bss
 292              		.align	2
 293              		.set	.LANCHOR0,. + 0
 294              		.type	DFB_1_backup, %object
 295              		.size	DFB_1_backup, 8
 296              	DFB_1_backup:
 297 0000 00000000 		.space	8
 297      00000000 
 298              		.text
 299              	.Letext0:
 300              		.file 2 "Generated_Source\\PSoC5\\cytypes.h"
 301              		.file 3 "Generated_Source\\PSoC5\\DFB_1.h"