ARM GAS  C:\Users\monis\AppData\Local\Temp\ccdpHmue.s 			page 1


   1              		.syntax unified
   2              		.cpu cortex-m3
   3              		.fpu softvfp
   4              		.eabi_attribute 20, 1
   5              		.eabi_attribute 21, 1
   6              		.eabi_attribute 23, 3
   7              		.eabi_attribute 24, 1
   8              		.eabi_attribute 25, 1
   9              		.eabi_attribute 26, 1
  10              		.eabi_attribute 30, 1
  11              		.eabi_attribute 34, 1
  12              		.eabi_attribute 18, 4
  13              		.thumb
  14              		.syntax unified
  15              		.file	"main.c"
  16              		.text
  17              	.Ltext0:
  18              		.cfi_sections	.debug_frame
  19              		.section	.text.LCD,"ax",%progbits
  20              		.align	2
  21              		.global	LCD
  22              		.thumb
  23              		.thumb_func
  24              		.type	LCD, %function
  25              	LCD:
  26              	.LFB63:
  27              		.file 1 "main.c"
   1:main.c        **** /* ========================================
   2:main.c        ****  *
   3:main.c        ****  * Copyright YOUR COMPANY, THE YEAR
   4:main.c        ****  * All Rights Reserved
   5:main.c        ****  * UNPUBLISHED, LICENSED SOFTWARE.
   6:main.c        ****  *
   7:main.c        ****  * CONFIDENTIAL AND PROPRIETARY INFORMATION
   8:main.c        ****  * WHICH IS THE PROPERTY OF your company.
   9:main.c        ****  *
  10:main.c        ****  * ========================================
  11:main.c        **** */
  12:main.c        **** #include "project.h"
  13:main.c        **** 
  14:main.c        **** void LCD() // LCD Display
  15:main.c        **** {       
  28              		.loc 1 15 0
  29              		.cfi_startproc
  30              		@ args = 0, pretend = 0, frame = 0
  31              		@ frame_needed = 0, uses_anonymous_args = 0
  32 0000 08B5     		push	{r3, lr}
  33              		.cfi_def_cfa_offset 8
  34              		.cfi_offset 3, -8
  35              		.cfi_offset 14, -4
  16:main.c        ****         LCD_Char_1_Start();
  36              		.loc 1 16 0
  37 0002 FFF7FEFF 		bl	LCD_Char_1_Start
  38              	.LVL0:
  17:main.c        ****         LCD_Char_1_Position(0,0);
  39              		.loc 1 17 0
  40 0006 0021     		movs	r1, #0
ARM GAS  C:\Users\monis\AppData\Local\Temp\ccdpHmue.s 			page 2


  41 0008 0846     		mov	r0, r1
  42 000a FFF7FEFF 		bl	LCD_Char_1_Position
  43              	.LVL1:
  18:main.c        ****         LCD_Char_1_PrintString("Monish Nene");
  44              		.loc 1 18 0
  45 000e 0548     		ldr	r0, .L3
  46 0010 FFF7FEFF 		bl	LCD_Char_1_PrintString
  47              	.LVL2:
  19:main.c        ****         LCD_Char_1_Position(1,0);
  48              		.loc 1 19 0
  49 0014 0021     		movs	r1, #0
  50 0016 0120     		movs	r0, #1
  51 0018 FFF7FEFF 		bl	LCD_Char_1_Position
  52              	.LVL3:
  20:main.c        ****         LCD_Char_1_PrintString("Microphone Lab 1");
  53              		.loc 1 20 0
  54 001c 0248     		ldr	r0, .L3+4
  55 001e FFF7FEFF 		bl	LCD_Char_1_PrintString
  56              	.LVL4:
  57 0022 08BD     		pop	{r3, pc}
  58              	.L4:
  59              		.align	2
  60              	.L3:
  61 0024 00000000 		.word	.LC0
  62 0028 0C000000 		.word	.LC1
  63              		.cfi_endproc
  64              	.LFE63:
  65              		.size	LCD, .-LCD
  66              		.section	.text.main,"ax",%progbits
  67              		.align	2
  68              		.global	main
  69              		.thumb
  70              		.thumb_func
  71              		.type	main, %function
  72              	main:
  73              	.LFB64:
  21:main.c        ****         return;
  22:main.c        **** }
  23:main.c        **** 
  24:main.c        **** int main(void)
  25:main.c        **** {
  74              		.loc 1 25 0
  75              		.cfi_startproc
  76              		@ args = 0, pretend = 0, frame = 0
  77              		@ frame_needed = 0, uses_anonymous_args = 0
  78 0000 08B5     		push	{r3, lr}
  79              		.cfi_def_cfa_offset 8
  80              		.cfi_offset 3, -8
  81              		.cfi_offset 14, -4
  26:main.c        ****     CyGlobalIntEnable; /* Enable global interrupts. */
  82              		.loc 1 26 0
  83              		.syntax unified
  84              	@ 26 "main.c" 1
  85 0002 62B6     		CPSIE   i
  86              	@ 0 "" 2
  87              	.LVL5:
  27:main.c        ****     short filtered,unfiltered,adcop;
ARM GAS  C:\Users\monis\AppData\Local\Temp\ccdpHmue.s 			page 3


  28:main.c        ****     int prevvalue=1,prevvalue2=1,k=0;
  29:main.c        ****     /* Place your initialization/startup code here (e.g. MyInst_Start()) */
  30:main.c        ****     LCD();
  88              		.loc 1 30 0
  89              		.thumb
  90              		.syntax unified
  91 0004 FFF7FEFF 		bl	LCD
  92              	.LVL6:
  31:main.c        ****     PGA_1_Start();
  93              		.loc 1 31 0
  94 0008 FFF7FEFF 		bl	PGA_1_Start
  95              	.LVL7:
  32:main.c        ****     Opamp_1_Start();
  96              		.loc 1 32 0
  97 000c FFF7FEFF 		bl	Opamp_1_Start
  98              	.LVL8:
  33:main.c        ****     ADC_SAR_1_Start();
  99              		.loc 1 33 0
 100 0010 FFF7FEFF 		bl	ADC_SAR_1_Start
 101              	.LVL9:
  34:main.c        ****     ADC_SAR_1_StartConvert();
 102              		.loc 1 34 0
 103 0014 FFF7FEFF 		bl	ADC_SAR_1_StartConvert
 104              	.LVL10:
  35:main.c        ****     VDAC8_1_Start();
 105              		.loc 1 35 0
 106 0018 FFF7FEFF 		bl	VDAC8_1_Start
 107              	.LVL11:
  36:main.c        ****     VDAC8_1_SetRange(255);
 108              		.loc 1 36 0
 109 001c FF20     		movs	r0, #255
 110 001e FFF7FEFF 		bl	VDAC8_1_SetRange
 111              	.LVL12:
  37:main.c        ****     VDAC8_2_Start();
 112              		.loc 1 37 0
 113 0022 FFF7FEFF 		bl	VDAC8_2_Start
 114              	.LVL13:
  38:main.c        ****     VDAC8_2_SetRange(255);
 115              		.loc 1 38 0
 116 0026 FF20     		movs	r0, #255
 117 0028 FFF7FEFF 		bl	VDAC8_2_SetRange
 118              	.LVL14:
 119              	.L6:
  39:main.c        ****     for(;;)
  40:main.c        ****     {   
  41:main.c        ****         adcop = ADC_SAR_1_GetResult8();
 120              		.loc 1 41 0 discriminator 1
 121 002c FFF7FEFF 		bl	ADC_SAR_1_GetResult8
 122              	.LVL15:
  42:main.c        ****         unfiltered = adcop + 128;  // input from ADC 2's Compliment form 
 123              		.loc 1 42 0 discriminator 1
 124 0030 8030     		adds	r0, r0, #128
 125              	.LVL16:
  43:main.c        ****         VDAC8_1_SetValue(unfiltered);
 126              		.loc 1 43 0 discriminator 1
 127 0032 C0B2     		uxtb	r0, r0
 128              	.LVL17:
ARM GAS  C:\Users\monis\AppData\Local\Temp\ccdpHmue.s 			page 4


 129 0034 FFF7FEFF 		bl	VDAC8_1_SetValue
 130              	.LVL18:
  44:main.c        ****         //k=unfiltered;
  45:main.c        ****         //filtered = (6*prevvalue+5*prevvalue2+k)/3;  //For weighted average half
  46:main.c        **** 
  47:main.c        ****           //filtered = 234-unfiltered; //For inverse
  48:main.c        ****           /*if(unfiltered<88)
  49:main.c        ****             {filtered=88;}
  50:main.c        ****           else if (unfiltered>168)
  51:main.c        ****             {filtered=168;}
  52:main.c        ****           else
  53:main.c        ****             {filtered=unfiltered;}*/ //For mean clipping
  54:main.c        ****         VDAC8_2_SetValue(filtered);
 131              		.loc 1 54 0 discriminator 1
 132 0038 0020     		movs	r0, #0
 133 003a FFF7FEFF 		bl	VDAC8_2_SetValue
 134              	.LVL19:
 135 003e F5E7     		b	.L6
 136              		.cfi_endproc
 137              	.LFE64:
 138              		.size	main, .-main
 139              		.section	.rodata.str1.4,"aMS",%progbits,1
 140              		.align	2
 141              	.LC0:
 142 0000 4D6F6E69 		.ascii	"Monish Nene\000"
 142      7368204E 
 142      656E6500 
 143              	.LC1:
 144 000c 4D696372 		.ascii	"Microphone Lab 1\000"
 144      6F70686F 
 144      6E65204C 
 144      61622031 
 144      00
 145              		.text
 146              	.Letext0:
 147              		.file 2 "c:\\program files (x86)\\cypress\\psoc creator\\4.1\\psoc creator\\import\\gnu\\arm\\5.4.
 148              		.file 3 "c:\\program files (x86)\\cypress\\psoc creator\\4.1\\psoc creator\\import\\gnu\\arm\\5.4.
 149              		.file 4 "Generated_Source\\PSoC5/LCD_Char_1.h"
 150              		.file 5 "Generated_Source\\PSoC5/PGA_1.h"
 151              		.file 6 "Generated_Source\\PSoC5/Opamp_1.h"
 152              		.file 7 "Generated_Source\\PSoC5/ADC_SAR_1.h"
 153              		.file 8 "Generated_Source\\PSoC5/VDAC8_1.h"
 154              		.file 9 "Generated_Source\\PSoC5/VDAC8_2.h"
 155              		.file 10 "Generated_Source\\PSoC5/core_cm3.h"