ARM GAS  C:\Users\monis\AppData\Local\Temp\cc0OwWV4.s 			page 1


   1              		.syntax unified
   2              		.cpu cortex-m3
   3              		.fpu softvfp
   4              		.eabi_attribute 20, 1
   5              		.eabi_attribute 21, 1
   6              		.eabi_attribute 23, 3
   7              		.eabi_attribute 24, 1
   8              		.eabi_attribute 25, 1
   9              		.eabi_attribute 26, 1
  10              		.eabi_attribute 30, 1
  11              		.eabi_attribute 34, 1
  12              		.eabi_attribute 18, 4
  13              		.thumb
  14              		.syntax unified
  15              		.file	"main.c"
  16              		.text
  17              	.Ltext0:
  18              		.cfi_sections	.debug_frame
  19              		.section	.text.LCD,"ax",%progbits
  20              		.align	2
  21              		.global	LCD
  22              		.thumb
  23              		.thumb_func
  24              		.type	LCD, %function
  25              	LCD:
  26              	.LFB63:
  27              		.file 1 "main.c"
   1:main.c        **** /* ========================================
   2:main.c        ****  *
   3:main.c        ****  * Copyright YOUR COMPANY, THE YEAR
   4:main.c        ****  * All Rights Reserved
   5:main.c        ****  * UNPUBLISHED, LICENSED SOFTWARE.
   6:main.c        ****  *
   7:main.c        ****  * CONFIDENTIAL AND PROPRIETARY INFORMATION
   8:main.c        ****  * WHICH IS THE PROPERTY OF your company.
   9:main.c        ****  *
  10:main.c        ****  * ========================================
  11:main.c        **** */
  12:main.c        **** #include "project.h"
  13:main.c        **** 
  14:main.c        **** void LCD() // LCD Display
  15:main.c        **** {              
  28              		.loc 1 15 0
  29              		.cfi_startproc
  30              		@ args = 0, pretend = 0, frame = 0
  31              		@ frame_needed = 0, uses_anonymous_args = 0
  32 0000 10B5     		push	{r4, lr}
  33              		.cfi_def_cfa_offset 8
  34              		.cfi_offset 4, -8
  35              		.cfi_offset 14, -4
  16:main.c        ****         LCD_Char_1_Position(0,0);
  36              		.loc 1 16 0
  37 0002 0021     		movs	r1, #0
  38 0004 0846     		mov	r0, r1
  39 0006 FFF7FEFF 		bl	LCD_Char_1_Position
  40              	.LVL0:
  17:main.c        ****         LCD_Char_1_PrintString("                ");
ARM GAS  C:\Users\monis\AppData\Local\Temp\cc0OwWV4.s 			page 2


  41              		.loc 1 17 0
  42 000a 0D4C     		ldr	r4, .L3
  43 000c 2046     		mov	r0, r4
  44 000e FFF7FEFF 		bl	LCD_Char_1_PrintString
  45              	.LVL1:
  18:main.c        ****         LCD_Char_1_Position(0,0);
  46              		.loc 1 18 0
  47 0012 0021     		movs	r1, #0
  48 0014 0846     		mov	r0, r1
  49 0016 FFF7FEFF 		bl	LCD_Char_1_Position
  50              	.LVL2:
  19:main.c        ****         LCD_Char_1_PrintString("LASER");
  51              		.loc 1 19 0
  52 001a 0A48     		ldr	r0, .L3+4
  53 001c FFF7FEFF 		bl	LCD_Char_1_PrintString
  54              	.LVL3:
  20:main.c        ****         LCD_Char_1_Position(1,0);
  55              		.loc 1 20 0
  56 0020 0021     		movs	r1, #0
  57 0022 0120     		movs	r0, #1
  58 0024 FFF7FEFF 		bl	LCD_Char_1_Position
  59              	.LVL4:
  21:main.c        ****         LCD_Char_1_PrintString("                ");
  60              		.loc 1 21 0
  61 0028 2046     		mov	r0, r4
  62 002a FFF7FEFF 		bl	LCD_Char_1_PrintString
  63              	.LVL5:
  22:main.c        ****         LCD_Char_1_Position(1,0);
  64              		.loc 1 22 0
  65 002e 0021     		movs	r1, #0
  66 0030 0120     		movs	r0, #1
  67 0032 FFF7FEFF 		bl	LCD_Char_1_Position
  68              	.LVL6:
  23:main.c        ****         LCD_Char_1_PrintString("LAB3");
  69              		.loc 1 23 0
  70 0036 0448     		ldr	r0, .L3+8
  71 0038 FFF7FEFF 		bl	LCD_Char_1_PrintString
  72              	.LVL7:
  73 003c 10BD     		pop	{r4, pc}
  74              	.L4:
  75 003e 00BF     		.align	2
  76              	.L3:
  77 0040 00000000 		.word	.LC0
  78 0044 14000000 		.word	.LC1
  79 0048 1C000000 		.word	.LC2
  80              		.cfi_endproc
  81              	.LFE63:
  82              		.size	LCD, .-LCD
  83              		.section	.text.LCDvalue,"ax",%progbits
  84              		.align	2
  85              		.global	LCDvalue
  86              		.thumb
  87              		.thumb_func
  88              		.type	LCDvalue, %function
  89              	LCDvalue:
  90              	.LFB64:
  24:main.c        ****         return;
ARM GAS  C:\Users\monis\AppData\Local\Temp\cc0OwWV4.s 			page 3


  25:main.c        **** }
  26:main.c        **** 
  27:main.c        **** void LCDvalue(int value) // LCD Display Degree
  28:main.c        **** {       
  91              		.loc 1 28 0
  92              		.cfi_startproc
  93              		@ args = 0, pretend = 0, frame = 0
  94              		@ frame_needed = 0, uses_anonymous_args = 0
  95              	.LVL8:
  96 0000 10B5     		push	{r4, lr}
  97              		.cfi_def_cfa_offset 8
  98              		.cfi_offset 4, -8
  99              		.cfi_offset 14, -4
 100 0002 0446     		mov	r4, r0
  29:main.c        ****         LCD_Char_1_Position(1,0);
 101              		.loc 1 29 0
 102 0004 0021     		movs	r1, #0
 103 0006 0120     		movs	r0, #1
 104              	.LVL9:
 105 0008 FFF7FEFF 		bl	LCD_Char_1_Position
 106              	.LVL10:
  30:main.c        ****         LCD_Char_1_PrintString("               ");
 107              		.loc 1 30 0
 108 000c 0648     		ldr	r0, .L7
 109 000e FFF7FEFF 		bl	LCD_Char_1_PrintString
 110              	.LVL11:
  31:main.c        ****         LCD_Char_1_Position(1,0);
 111              		.loc 1 31 0
 112 0012 0021     		movs	r1, #0
 113 0014 0120     		movs	r0, #1
 114 0016 FFF7FEFF 		bl	LCD_Char_1_Position
 115              	.LVL12:
  32:main.c        ****         LCD_Char_1_PrintString("PWM=");
 116              		.loc 1 32 0
 117 001a 0448     		ldr	r0, .L7+4
 118 001c FFF7FEFF 		bl	LCD_Char_1_PrintString
 119              	.LVL13:
  33:main.c        ****         LCD_Char_1_PrintU32Number(value);
 120              		.loc 1 33 0
 121 0020 2046     		mov	r0, r4
 122 0022 FFF7FEFF 		bl	LCD_Char_1_PrintU32Number
 123              	.LVL14:
 124 0026 10BD     		pop	{r4, pc}
 125              	.LVL15:
 126              	.L8:
 127              		.align	2
 128              	.L7:
 129 0028 24000000 		.word	.LC3
 130 002c 34000000 		.word	.LC4
 131              		.cfi_endproc
 132              	.LFE64:
 133              		.size	LCDvalue, .-LCDvalue
 134              		.section	.text.main,"ax",%progbits
 135              		.align	2
 136              		.global	main
 137              		.thumb
 138              		.thumb_func
ARM GAS  C:\Users\monis\AppData\Local\Temp\cc0OwWV4.s 			page 4


 139              		.type	main, %function
 140              	main:
 141              	.LFB65:
  34:main.c        ****         
  35:main.c        ****         return;
  36:main.c        **** }
  37:main.c        **** 
  38:main.c        **** int main(void)
  39:main.c        **** {   int8_t value;
 142              		.loc 1 39 0
 143              		.cfi_startproc
 144              		@ args = 0, pretend = 0, frame = 0
 145              		@ frame_needed = 0, uses_anonymous_args = 0
 146 0000 38B5     		push	{r3, r4, r5, lr}
 147              		.cfi_def_cfa_offset 16
 148              		.cfi_offset 3, -16
 149              		.cfi_offset 4, -12
 150              		.cfi_offset 5, -8
 151              		.cfi_offset 14, -4
 152              	.LVL16:
  40:main.c        ****     uint8_t i,count=128,value2;
  41:main.c        ****     CyGlobalIntEnable; /* Enable global interrupts. */
 153              		.loc 1 41 0
 154              		.syntax unified
 155              	@ 41 "main.c" 1
 156 0002 62B6     		CPSIE   i
 157              	@ 0 "" 2
  42:main.c        ****     LCD_Char_1_Start();
 158              		.loc 1 42 0
 159              		.thumb
 160              		.syntax unified
 161 0004 FFF7FEFF 		bl	LCD_Char_1_Start
 162              	.LVL17:
  43:main.c        ****     ADC_SAR_1_Start();
 163              		.loc 1 43 0
 164 0008 FFF7FEFF 		bl	ADC_SAR_1_Start
 165              	.LVL18:
  44:main.c        ****     ADC_SAR_1_StartConvert();
 166              		.loc 1 44 0
 167 000c FFF7FEFF 		bl	ADC_SAR_1_StartConvert
 168              	.LVL19:
  45:main.c        ****     VDAC8_1_Start();
 169              		.loc 1 45 0
 170 0010 FFF7FEFF 		bl	VDAC8_1_Start
 171              	.LVL20:
  46:main.c        ****     VDAC8_1_SetRange(255);
 172              		.loc 1 46 0
 173 0014 FF20     		movs	r0, #255
 174 0016 FFF7FEFF 		bl	VDAC8_1_SetRange
 175              	.LVL21:
  47:main.c        ****     LCD();
 176              		.loc 1 47 0
 177 001a FFF7FEFF 		bl	LCD
 178              	.LVL22:
  40:main.c        ****     CyGlobalIntEnable; /* Enable global interrupts. */
 179              		.loc 1 40 0
 180 001e 8025     		movs	r5, #128
ARM GAS  C:\Users\monis\AppData\Local\Temp\cc0OwWV4.s 			page 5


 181              	.LVL23:
 182              	.L14:
  48:main.c        ****     /* Place your initialization/startup code here (e.g. MyInst_Start()) */
  49:main.c        ****     for(;;)
  50:main.c        ****     {
  51:main.c        ****         value = ADC_SAR_1_GetResult8();
 183              		.loc 1 51 0
 184 0020 FFF7FEFF 		bl	ADC_SAR_1_GetResult8
 185              	.LVL24:
  52:main.c        ****         value2=value;
 186              		.loc 1 52 0
 187 0024 C0B2     		uxtb	r0, r0
 188              	.LVL25:
  53:main.c        ****             // input from ADC 2's Compliment form 
  54:main.c        ****         if(i<value2)
 189              		.loc 1 54 0
 190 0026 8442     		cmp	r4, r0
 191 0028 09D2     		bcs	.L10
  55:main.c        ****         {
  56:main.c        ****             p0_5_Write(1);
 192              		.loc 1 56 0
 193 002a 0120     		movs	r0, #1
 194              	.LVL26:
 195 002c FFF7FEFF 		bl	p0_5_Write
 196              	.LVL27:
  57:main.c        ****             p0_7_Write(1);
 197              		.loc 1 57 0
 198 0030 0120     		movs	r0, #1
 199 0032 FFF7FEFF 		bl	p0_7_Write
 200              	.LVL28:
  58:main.c        ****             p0_6_Write(1);
 201              		.loc 1 58 0
 202 0036 0120     		movs	r0, #1
 203 0038 FFF7FEFF 		bl	p0_6_Write
 204              	.LVL29:
 205 003c 08E0     		b	.L11
 206              	.LVL30:
 207              	.L10:
  59:main.c        ****         }
  60:main.c        ****         else
  61:main.c        ****         {
  62:main.c        ****             p0_5_Write(0);
 208              		.loc 1 62 0
 209 003e 0020     		movs	r0, #0
 210              	.LVL31:
 211 0040 FFF7FEFF 		bl	p0_5_Write
 212              	.LVL32:
  63:main.c        ****             p0_6_Write(0);
 213              		.loc 1 63 0
 214 0044 0020     		movs	r0, #0
 215 0046 FFF7FEFF 		bl	p0_6_Write
 216              	.LVL33:
  64:main.c        ****             p0_7_Write(0);
 217              		.loc 1 64 0
 218 004a 0020     		movs	r0, #0
 219 004c FFF7FEFF 		bl	p0_7_Write
 220              	.LVL34:
ARM GAS  C:\Users\monis\AppData\Local\Temp\cc0OwWV4.s 			page 6


 221              	.L11:
  65:main.c        ****         }    
  66:main.c        ****         /* Place your application code here. */
  67:main.c        ****         if(p3_2_Read()==1u)
 222              		.loc 1 67 0
 223 0050 FFF7FEFF 		bl	p3_2_Read
 224              	.LVL35:
 225 0054 0128     		cmp	r0, #1
 226 0056 01D1     		bne	.L12
  68:main.c        ****         {
  69:main.c        ****         count++;   
 227              		.loc 1 69 0
 228 0058 0135     		adds	r5, r5, #1
 229              	.LVL36:
 230 005a EDB2     		uxtb	r5, r5
 231              	.LVL37:
 232              	.L12:
  70:main.c        ****         }
  71:main.c        ****         
  72:main.c        ****         if(i==255)
 233              		.loc 1 72 0
 234 005c FF2C     		cmp	r4, #255
 235 005e 04D1     		bne	.L13
  73:main.c        ****         {
  74:main.c        ****             VDAC8_1_SetValue(count+128);
 236              		.loc 1 74 0
 237 0060 85F08000 		eor	r0, r5, #128
 238 0064 FFF7FEFF 		bl	VDAC8_1_SetValue
 239              	.LVL38:
  75:main.c        ****             count=128;
 240              		.loc 1 75 0
 241 0068 8025     		movs	r5, #128
 242              	.LVL39:
 243              	.L13:
  76:main.c        ****         }
  77:main.c        ****         i++;
 244              		.loc 1 77 0
 245 006a 0134     		adds	r4, r4, #1
 246              	.LVL40:
 247 006c E4B2     		uxtb	r4, r4
 248              	.LVL41:
  78:main.c        **** }
 249              		.loc 1 78 0
 250 006e D7E7     		b	.L14
 251              		.cfi_endproc
 252              	.LFE65:
 253              		.size	main, .-main
 254              		.section	.rodata.str1.4,"aMS",%progbits,1
 255              		.align	2
 256              	.LC0:
 257 0000 20202020 		.ascii	"                \000"
 257      20202020 
 257      20202020 
 257      20202020 
 257      00
 258 0011 000000   		.space	3
 259              	.LC1:
ARM GAS  C:\Users\monis\AppData\Local\Temp\cc0OwWV4.s 			page 7


 260 0014 4C415345 		.ascii	"LASER\000"
 260      5200
 261 001a 0000     		.space	2
 262              	.LC2:
 263 001c 4C414233 		.ascii	"LAB3\000"
 263      00
 264 0021 000000   		.space	3
 265              	.LC3:
 266 0024 20202020 		.ascii	"               \000"
 266      20202020 
 266      20202020 
 266      20202000 
 267              	.LC4:
 268 0034 50574D3D 		.ascii	"PWM=\000"
 268      00
 269              		.text
 270              	.Letext0:
 271              		.file 2 "c:\\program files (x86)\\cypress\\psoc creator\\4.1\\psoc creator\\import\\gnu\\arm\\5.4.
 272              		.file 3 "c:\\program files (x86)\\cypress\\psoc creator\\4.1\\psoc creator\\import\\gnu\\arm\\5.4.
 273              		.file 4 "Generated_Source\\PSoC5/LCD_Char_1.h"
 274              		.file 5 "Generated_Source\\PSoC5/ADC_SAR_1.h"
 275              		.file 6 "Generated_Source\\PSoC5/VDAC8_1.h"
 276              		.file 7 "Generated_Source\\PSoC5/p0_5.h"
 277              		.file 8 "Generated_Source\\PSoC5/p0_7.h"
 278              		.file 9 "Generated_Source\\PSoC5/p0_6.h"
 279              		.file 10 "Generated_Source\\PSoC5/p3_2.h"
 280              		.file 11 "Generated_Source\\PSoC5/core_cm3.h"